EXPORTS 
	??_R0?AV?$_Iosb@H@std@@@8 	 DATA
	??_R0?AV?$_Ref_count@VBBox@G2lib@@@std@@@8 	 DATA
	??_R0?AV?$_Ref_count_obj2@$$CBVBBox@G2lib@@@std@@@8 	 DATA
	??_R0?AV?$_Ref_count_obj2@VAABBtree@G2lib@@@std@@@8 	 DATA
	??_R0?AV?$basic_filebuf@DU?$char_traits@D@std@@@std@@@8 	 DATA
	??_R0?AV?$basic_ios@DU?$char_traits@D@std@@@std@@@8 	 DATA
	??_R0?AV?$basic_ofstream@DU?$char_traits@D@std@@@std@@@8 	 DATA
	??_R0?AV?$basic_ostream@DU?$char_traits@D@std@@@std@@@8 	 DATA
	??_R0?AV?$basic_ostringstream@DU?$char_traits@D@std@@V?$allocator@D@2@@std@@@8 	 DATA
	??_R0?AV?$basic_streambuf@DU?$char_traits@D@std@@@std@@@8 	 DATA
	??_R0?AV?$basic_stringbuf@DU?$char_traits@D@std@@V?$allocator@D@2@@std@@@8 	 DATA
	??_R0?AVBaseCurve@G2lib@@@8 	 DATA
	??_R0?AVBiarc@G2lib@@@8 	 DATA
	??_R0?AVBiarcList@G2lib@@@8 	 DATA
	??_R0?AVCircleArc@G2lib@@@8 	 DATA
	??_R0?AVClothoidCurve@G2lib@@@8 	 DATA
	??_R0?AVClothoidList@G2lib@@@8 	 DATA
	??_R0?AVLineSegment@G2lib@@@8 	 DATA
	??_R0?AVPolyLine@G2lib@@@8 	 DATA
	??_R0?AV_Ref_count_base@std@@@8 	 DATA
	??_R0?AVbad_alloc@std@@@8 	 DATA
	??_R0?AVbad_array_new_length@std@@@8 	 DATA
	??_R0?AVbad_cast@std@@@8 	 DATA
	??_R0?AVexception@std@@@8 	 DATA
	??_R0?AVios_base@std@@@8 	 DATA
	??_R0?AVruntime_error@std@@@8 	 DATA
	?CurveType_name@G2lib@@3PAPEBDA 	 DATA
	?_Psave@?$_Facetptr@V?$codecvt@DDU_Mbstatet@@@std@@@std@@2PEBVfacet@locale@2@EB 	 DATA
	?_Psave@?$_Facetptr@V?$ctype@D@std@@@std@@2PEBVfacet@locale@2@EB 	 DATA
	?_Stinit@?1??_Init@?$basic_filebuf@DU?$char_traits@D@std@@@std@@IEAAXPEAU_iobuf@@W4_Initfl@23@@Z@4U_Mbstatet@@A 	 DATA
	?intersect_with_AABBtree@G2lib@@3_NA 	 DATA
	?max_iter@ClothoidCurve@G2lib@@0HA 	 DATA
	?sqrtMachepsi@G2lib@@3NB 	 DATA
	?tolerance@ClothoidCurve@G2lib@@0NA 	 DATA
	??$?0$$QEAVid@thread@std@@$$Z$$V@?$pair@$$CBVid@thread@std@@H@std@@QEAA@Upiecewise_construct_t@1@V?$tuple@$$QEAVid@thread@std@@@1@V?$tuple@$$V@1@@Z
	??$?0V?$tuple@$$QEAVid@thread@std@@@std@@V?$tuple@$$V@1@$0A@$$Z$S@?$pair@$$CBVid@thread@std@@H@std@@QEAA@AEAV?$tuple@$$QEAVid@thread@std@@@1@AEAV?$tuple@$$V@1@U?$integer_sequence@_K$0A@@1@U?$integer_sequence@_K$S@1@@Z
	??$?6DU?$char_traits@D@std@@V?$allocator@D@1@@std@@YAAEAV?$basic_ostream@DU?$char_traits@D@std@@@0@AEAV10@AEBV?$basic_string@DU?$char_traits@D@std@@V?$allocator@D@2@@0@@Z
	??$?6DU?$char_traits@D@std@@_J@std@@YAAEAV?$basic_ostream@DU?$char_traits@D@std@@@0@AEAV10@AEBU?$_Smanip@_J@0@@Z
	??$?6NDU?$char_traits@D@std@@@std@@YAAEAV?$basic_ostream@DU?$char_traits@D@std@@@0@AEAV10@AEBV?$complex@N@0@@Z
	??$?6U?$char_traits@D@std@@@std@@YAAEAV?$basic_ostream@DU?$char_traits@D@std@@@0@AEAV10@D@Z
	??$?6U?$char_traits@D@std@@@std@@YAAEAV?$basic_ostream@DU?$char_traits@D@std@@@0@AEAV10@PEBD@Z
	??$?HDU?$char_traits@D@std@@V?$allocator@D@1@@std@@YA?AV?$basic_string@DU?$char_traits@D@std@@V?$allocator@D@2@@0@$$QEAV10@QEBD@Z
	??$?HDU?$char_traits@D@std@@V?$allocator@D@1@@std@@YA?AV?$basic_string@DU?$char_traits@D@std@@V?$allocator@D@2@@0@AEBV10@QEBD@Z
	??$?HDU?$char_traits@D@std@@V?$allocator@D@1@@std@@YA?AV?$basic_string@DU?$char_traits@D@std@@V?$allocator@D@2@@0@QEBDAEBV10@@Z
	??$_Allocate@$0BA@U_Default_allocate_traits@std@@$0A@@std@@YAPEAX_K@Z
	??$_Allocate_manually_vector_aligned@U_Default_allocate_traits@std@@@std@@YAPEAX_K@Z
	??$_Const_cast@$$CBU?$pair@NN@std@@@std@@YAPEAU?$pair@NN@0@PEBU10@@Z
	??$_Const_cast@$$CBVBiarc@G2lib@@@std@@YAPEAVBiarc@G2lib@@PEBV12@@Z
	??$_Const_cast@$$CBVClothoidCurve@G2lib@@@std@@YAPEAVClothoidCurve@G2lib@@PEBV12@@Z
	??$_Const_cast@$$CBVLineSegment@G2lib@@@std@@YAPEAVLineSegment@G2lib@@PEBV12@@Z
	??$_Construct_in_place@$$CBVBBox@G2lib@@AEANAEANAEANAEANW4CurveType@2@AEAH@std@@YAXAEBVBBox@G2lib@@AEAN111$$QEAW4CurveType@2@AEAH@Z
	??$_Construct_in_place@PEADAEBQEAD@std@@YAXAEAPEADAEBQEAD@Z
	??$_Construct_in_place@PEAU?$_Tree_node@U?$pair@$$CBU?$pair@W4CurveType@G2lib@@W412@@std@@W4CurveType@G2lib@@@std@@PEAX@std@@AEAPEAU12@@std@@YAXAEAPEAU?$_Tree_node@U?$pair@$$CBU?$pair@W4CurveType@G2lib@@W412@@std@@W4CurveType@G2lib@@@std@@PEAX@0@0@Z
	??$_Construct_in_place@PEAU?$_Tree_node@U?$pair@$$CBU?$pair@W4CurveType@G2lib@@W412@@std@@W4CurveType@G2lib@@@std@@PEAX@std@@AEBQEAU12@@std@@YAXAEAPEAU?$_Tree_node@U?$pair@$$CBU?$pair@W4CurveType@G2lib@@W412@@std@@W4CurveType@G2lib@@@std@@PEAX@0@AEBQEAU10@@Z
	??$_Construct_in_place@PEAU?$_Tree_node@U?$pair@$$CBVid@thread@std@@H@std@@PEAX@std@@AEAPEAU12@@std@@YAXAEAPEAU?$_Tree_node@U?$pair@$$CBVid@thread@std@@H@std@@PEAX@0@0@Z
	??$_Construct_in_place@PEAU?$_Tree_node@U?$pair@$$CBVid@thread@std@@H@std@@PEAX@std@@AEBQEAU12@@std@@YAXAEAPEAU?$_Tree_node@U?$pair@$$CBVid@thread@std@@H@std@@PEAX@0@AEBQEAU10@@Z
	??$_Construct_in_place@VAABBtree@G2lib@@$$V@std@@YAXAEAVAABBtree@G2lib@@@Z
	??$_Copy_memmove@PEANPEAN@std@@YAPEANPEAN00@Z
	??$_Copy_memmove@PEBNPEAN@std@@YAPEANPEBN0PEAN@Z
	??$_Deallocate@$0BA@$0A@@std@@YAXPEAX_K@Z
	??$_Destroy_in_place@$$CBVBBox@G2lib@@@std@@YAXAEBVBBox@G2lib@@@Z
	??$_Destroy_in_place@PEAD@std@@YAXAEAPEAD@Z
	??$_Destroy_in_place@PEAU?$_Tree_node@U?$pair@$$CBU?$pair@W4CurveType@G2lib@@W412@@std@@W4CurveType@G2lib@@@std@@PEAX@std@@@std@@YAXAEAPEAU?$_Tree_node@U?$pair@$$CBU?$pair@W4CurveType@G2lib@@W412@@std@@W4CurveType@G2lib@@@std@@PEAX@0@@Z
	??$_Destroy_in_place@PEAU?$_Tree_node@U?$pair@$$CBVid@thread@std@@H@std@@PEAX@std@@@std@@YAXAEAPEAU?$_Tree_node@U?$pair@$$CBVid@thread@std@@H@std@@PEAX@0@@Z
	??$_Destroy_in_place@VAABBtree@G2lib@@@std@@YAXAEAVAABBtree@G2lib@@@Z
	??$_Destroy_range@V?$allocator@N@std@@@std@@YAXPEANQEANAEAV?$allocator@N@0@@Z
	??$_Destroy_range@V?$allocator@U?$pair@NN@std@@@std@@@std@@YAXPEAU?$pair@NN@0@QEAU10@AEAV?$allocator@U?$pair@NN@std@@@0@@Z
	??$_Destroy_range@V?$allocator@U?$pair@V?$shared_ptr@$$CBVBBox@G2lib@@@std@@V12@@std@@@std@@@std@@YAXPEAU?$pair@V?$shared_ptr@$$CBVBBox@G2lib@@@std@@V12@@0@QEAU10@AEAV?$allocator@U?$pair@V?$shared_ptr@$$CBVBBox@G2lib@@@std@@V12@@std@@@0@@Z
	??$_Destroy_range@V?$allocator@V?$shared_ptr@$$CBVBBox@G2lib@@@std@@@std@@@std@@YAXPEAV?$shared_ptr@$$CBVBBox@G2lib@@@0@QEAV10@AEAV?$allocator@V?$shared_ptr@$$CBVBBox@G2lib@@@std@@@0@@Z
	??$_Destroy_range@V?$allocator@V?$shared_ptr@VAABBtree@G2lib@@@std@@@std@@@std@@YAXPEAV?$shared_ptr@VAABBtree@G2lib@@@0@QEAV10@AEAV?$allocator@V?$shared_ptr@VAABBtree@G2lib@@@std@@@0@@Z
	??$_Destroy_range@V?$allocator@VBiarc@G2lib@@@std@@@std@@YAXPEAVBiarc@G2lib@@QEAV12@AEAV?$allocator@VBiarc@G2lib@@@0@@Z
	??$_Destroy_range@V?$allocator@VClothoidCurve@G2lib@@@std@@@std@@YAXPEAVClothoidCurve@G2lib@@QEAV12@AEAV?$allocator@VClothoidCurve@G2lib@@@0@@Z
	??$_Destroy_range@V?$allocator@VLineSegment@G2lib@@@std@@@std@@YAXPEAVLineSegment@G2lib@@QEAV12@AEAV?$allocator@VLineSegment@G2lib@@@0@@Z
	??$_Destroy_range@V?$allocator@VTriangle2D@G2lib@@@std@@@std@@YAXPEAVTriangle2D@G2lib@@QEAV12@AEAV?$allocator@VTriangle2D@G2lib@@@0@@Z
	??$_Emplace_reallocate@AEBN@?$vector@NV?$allocator@N@std@@@std@@QEAAPEANQEANAEBN@Z
	??$_Emplace_reallocate@AEBU?$pair@NN@std@@@?$vector@U?$pair@NN@std@@V?$allocator@U?$pair@NN@std@@@2@@std@@QEAAPEAU?$pair@NN@1@QEAU21@AEBU21@@Z
	??$_Emplace_reallocate@AEBV?$shared_ptr@$$CBVBBox@G2lib@@@std@@@?$vector@V?$shared_ptr@$$CBVBBox@G2lib@@@std@@V?$allocator@V?$shared_ptr@$$CBVBBox@G2lib@@@std@@@2@@std@@QEAAPEAV?$shared_ptr@$$CBVBBox@G2lib@@@1@QEAV21@AEBV21@@Z
	??$_Emplace_reallocate@AEBV?$shared_ptr@VAABBtree@G2lib@@@std@@@?$vector@V?$shared_ptr@VAABBtree@G2lib@@@std@@V?$allocator@V?$shared_ptr@VAABBtree@G2lib@@@std@@@2@@std@@QEAAPEAV?$shared_ptr@VAABBtree@G2lib@@@1@QEAV21@AEBV21@@Z
	??$_Emplace_reallocate@AEBVBiarc@G2lib@@@?$vector@VBiarc@G2lib@@V?$allocator@VBiarc@G2lib@@@std@@@std@@QEAAPEAVBiarc@G2lib@@QEAV23@AEBV23@@Z
	??$_Emplace_reallocate@AEBVClothoidCurve@G2lib@@@?$vector@VClothoidCurve@G2lib@@V?$allocator@VClothoidCurve@G2lib@@@std@@@std@@QEAAPEAVClothoidCurve@G2lib@@QEAV23@AEBV23@@Z
	??$_Emplace_reallocate@AEBVLineSegment@G2lib@@@?$vector@VLineSegment@G2lib@@V?$allocator@VLineSegment@G2lib@@@std@@@std@@QEAAPEAVLineSegment@G2lib@@QEAV23@AEBV23@@Z
	??$_Emplace_reallocate@AEBVTriangle2D@G2lib@@@?$vector@VTriangle2D@G2lib@@V?$allocator@VTriangle2D@G2lib@@@std@@@std@@QEAAPEAVTriangle2D@G2lib@@QEAV23@AEBV23@@Z
	??$_Emplace_reallocate@N@?$vector@NV?$allocator@N@std@@@std@@QEAAPEANQEAN$$QEAN@Z
	??$_Emplace_reallocate@U?$pair@NN@std@@@?$vector@U?$pair@NN@std@@V?$allocator@U?$pair@NN@std@@@2@@std@@QEAAPEAU?$pair@NN@1@QEAU21@$$QEAU21@@Z
	??$_Emplace_reallocate@U?$pair@V?$shared_ptr@$$CBVBBox@G2lib@@@std@@V12@@std@@@?$vector@U?$pair@V?$shared_ptr@$$CBVBBox@G2lib@@@std@@V12@@std@@V?$allocator@U?$pair@V?$shared_ptr@$$CBVBBox@G2lib@@@std@@V12@@std@@@2@@std@@QEAAPEAU?$pair@V?$shared_ptr@$$CBVBBox@G2lib@@@std@@V12@@1@QEAU21@$$QEAU21@@Z
	??$_Emplace_reallocate@V?$shared_ptr@$$CBVBBox@G2lib@@@std@@@?$vector@V?$shared_ptr@$$CBVBBox@G2lib@@@std@@V?$allocator@V?$shared_ptr@$$CBVBBox@G2lib@@@std@@@2@@std@@QEAAPEAV?$shared_ptr@$$CBVBBox@G2lib@@@1@QEAV21@$$QEAV21@@Z
	??$_Emplace_reallocate@VBiarc@G2lib@@@?$vector@VBiarc@G2lib@@V?$allocator@VBiarc@G2lib@@@std@@@std@@QEAAPEAVBiarc@G2lib@@QEAV23@$$QEAV23@@Z
	??$_Emplace_reallocate@VClothoidCurve@G2lib@@@?$vector@VClothoidCurve@G2lib@@V?$allocator@VClothoidCurve@G2lib@@@std@@@std@@QEAAPEAVClothoidCurve@G2lib@@QEAV23@$$QEAV23@@Z
	??$_Emplace_reallocate@VTriangle2D@G2lib@@@?$vector@VTriangle2D@G2lib@@V?$allocator@VTriangle2D@G2lib@@@std@@@std@@QEAAPEAVTriangle2D@G2lib@@QEAV23@$$QEAV23@@Z
	??$_Erase_tree@V?$allocator@U?$_Tree_node@U?$pair@$$CBU?$pair@W4CurveType@G2lib@@W412@@std@@W4CurveType@G2lib@@@std@@PEAX@std@@@std@@@?$_Tree_val@U?$_Tree_simple_types@U?$pair@$$CBU?$pair@W4CurveType@G2lib@@W412@@std@@W4CurveType@G2lib@@@std@@@std@@@std@@QEAAXAEAV?$allocator@U?$_Tree_node@U?$pair@$$CBU?$pair@W4CurveType@G2lib@@W412@@std@@W4CurveType@G2lib@@@std@@PEAX@std@@@1@PEAU?$_Tree_node@U?$pair@$$CBU?$pair@W4CurveType@G2lib@@W412@@std@@W4CurveType@G2lib@@@std@@PEAX@1@@Z
	??$_Erase_tree@V?$allocator@U?$_Tree_node@U?$pair@$$CBVid@thread@std@@H@std@@PEAX@std@@@std@@@?$_Tree_val@U?$_Tree_simple_types@U?$pair@$$CBVid@thread@std@@H@std@@@std@@@std@@QEAAXAEAV?$allocator@U?$_Tree_node@U?$pair@$$CBVid@thread@std@@H@std@@PEAX@std@@@1@PEAU?$_Tree_node@U?$pair@$$CBVid@thread@std@@H@std@@PEAX@1@@Z
	??$_Find_hint@U?$pair@W4CurveType@G2lib@@W412@@std@@@?$_Tree@V?$_Tmap_traits@U?$pair@W4CurveType@G2lib@@W412@@std@@W4CurveType@G2lib@@U?$less@U?$pair@W4CurveType@G2lib@@W412@@std@@@2@V?$allocator@U?$pair@$$CBU?$pair@W4CurveType@G2lib@@W412@@std@@W4CurveType@G2lib@@@std@@@2@$0A@@std@@@std@@IEBA?AU?$_Tree_find_hint_result@PEAU?$_Tree_node@U?$pair@$$CBU?$pair@W4CurveType@G2lib@@W412@@std@@W4CurveType@G2lib@@@std@@PEAX@std@@@1@QEAU?$_Tree_node@U?$pair@$$CBU?$pair@W4CurveType@G2lib@@W412@@std@@W4CurveType@G2lib@@@std@@PEAX@1@AEBU?$pair@W4CurveType@G2lib@@W412@@1@@Z
	??$_Getvals@_W@?$time_get@DV?$istreambuf_iterator@DU?$char_traits@D@std@@@std@@@std@@IEAAX_WAEBV_Locinfo@1@@Z
	??$_Getvals@_W@?$time_get@_WV?$istreambuf_iterator@_WU?$char_traits@_W@std@@@std@@@std@@IEAAX_WAEBV_Locinfo@1@@Z
	??$_Insert_range@PEAV?$shared_ptr@$$CBVBBox@G2lib@@@std@@@?$vector@V?$shared_ptr@$$CBVBBox@G2lib@@@std@@V?$allocator@V?$shared_ptr@$$CBVBBox@G2lib@@@std@@@2@@std@@AEAAXV?$_Vector_const_iterator@V?$_Vector_val@U?$_Simple_types@V?$shared_ptr@$$CBVBBox@G2lib@@@std@@@std@@@std@@@1@PEAV?$shared_ptr@$$CBVBBox@G2lib@@@1@1Uforward_iterator_tag@1@@Z
	??$_Insert_string@DU?$char_traits@D@std@@_K@std@@YAAEAV?$basic_ostream@DU?$char_traits@D@std@@@0@AEAV10@QEBD_K@Z
	??$_Maklocstr@D@std@@YAPEADPEBDPEADAEBU_Cvtvec@@@Z
	??$_Move_unchecked@PEAV?$shared_ptr@$$CBVBBox@G2lib@@@std@@PEAV12@@std@@YAPEAV?$shared_ptr@$$CBVBBox@G2lib@@@0@PEAV10@00@Z
	??$_Reallocate_grow_by@V<lambda_319d5e083f45f90dcdce5dce53cbb275>@@D@?$basic_string@DU?$char_traits@D@std@@V?$allocator@D@2@@std@@AEAAAEAV01@_KV<lambda_319d5e083f45f90dcdce5dce53cbb275>@@D@Z
	??$_Reallocate_grow_by@V<lambda_65e615be2a453ca0576c979606f46740>@@PEBD_K@?$basic_string@DU?$char_traits@D@std@@V?$allocator@D@2@@std@@AEAAAEAV01@_KV<lambda_65e615be2a453ca0576c979606f46740>@@PEBD_K@Z
	??$_Refancy@PEAN$0A@@std@@YAPEANPEAN@Z
	??$_Resize_reallocate@U_Value_init_tag@std@@@?$vector@NV?$allocator@N@std@@@std@@AEAAX_KAEBU_Value_init_tag@1@@Z
	??$_Uninitialized_copy@PEAV?$shared_ptr@$$CBVBBox@G2lib@@@std@@V?$allocator@V?$shared_ptr@$$CBVBBox@G2lib@@@std@@@2@@std@@YAPEAV?$shared_ptr@$$CBVBBox@G2lib@@@0@QEAV10@0PEAV10@AEAV?$allocator@V?$shared_ptr@$$CBVBBox@G2lib@@@std@@@0@@Z
	??$_Uninitialized_copy@PEAVBiarc@G2lib@@V?$allocator@VBiarc@G2lib@@@std@@@std@@YAPEAVBiarc@G2lib@@QEAV12@0PEAV12@AEAV?$allocator@VBiarc@G2lib@@@0@@Z
	??$_Uninitialized_copy@PEAVClothoidCurve@G2lib@@V?$allocator@VClothoidCurve@G2lib@@@std@@@std@@YAPEAVClothoidCurve@G2lib@@QEAV12@0PEAV12@AEAV?$allocator@VClothoidCurve@G2lib@@@0@@Z
	??$_Uninitialized_copy@PEAVLineSegment@G2lib@@V?$allocator@VLineSegment@G2lib@@@std@@@std@@YAPEAVLineSegment@G2lib@@QEAV12@0PEAV12@AEAV?$allocator@VLineSegment@G2lib@@@0@@Z
	??$_Uninitialized_copy@PEAVTriangle2D@G2lib@@V?$allocator@VTriangle2D@G2lib@@@std@@@std@@YAPEAVTriangle2D@G2lib@@QEAV12@0PEAV12@AEAV?$allocator@VTriangle2D@G2lib@@@0@@Z
	??$_Uninitialized_move@PEANV?$allocator@N@std@@@std@@YAPEANQEAN0PEANAEAV?$allocator@N@0@@Z
	??$_Uninitialized_move@PEAU?$pair@NN@std@@V?$allocator@U?$pair@NN@std@@@2@@std@@YAPEAU?$pair@NN@0@QEAU10@0PEAU10@AEAV?$allocator@U?$pair@NN@std@@@0@@Z
	??$_Uninitialized_move@PEAU?$pair@V?$shared_ptr@$$CBVBBox@G2lib@@@std@@V12@@std@@V?$allocator@U?$pair@V?$shared_ptr@$$CBVBBox@G2lib@@@std@@V12@@std@@@2@@std@@YAPEAU?$pair@V?$shared_ptr@$$CBVBBox@G2lib@@@std@@V12@@0@QEAU10@0PEAU10@AEAV?$allocator@U?$pair@V?$shared_ptr@$$CBVBBox@G2lib@@@std@@V12@@std@@@0@@Z
	??$_Uninitialized_move@PEAV?$shared_ptr@$$CBVBBox@G2lib@@@std@@V?$allocator@V?$shared_ptr@$$CBVBBox@G2lib@@@std@@@2@@std@@YAPEAV?$shared_ptr@$$CBVBBox@G2lib@@@0@QEAV10@0PEAV10@AEAV?$allocator@V?$shared_ptr@$$CBVBBox@G2lib@@@std@@@0@@Z
	??$_Uninitialized_move@PEAV?$shared_ptr@VAABBtree@G2lib@@@std@@V?$allocator@V?$shared_ptr@VAABBtree@G2lib@@@std@@@2@@std@@YAPEAV?$shared_ptr@VAABBtree@G2lib@@@0@QEAV10@0PEAV10@AEAV?$allocator@V?$shared_ptr@VAABBtree@G2lib@@@std@@@0@@Z
	??$_Uninitialized_move@PEAVBiarc@G2lib@@V?$allocator@VBiarc@G2lib@@@std@@@std@@YAPEAVBiarc@G2lib@@QEAV12@0PEAV12@AEAV?$allocator@VBiarc@G2lib@@@0@@Z
	??$_Uninitialized_move@PEAVClothoidCurve@G2lib@@V?$allocator@VClothoidCurve@G2lib@@@std@@@std@@YAPEAVClothoidCurve@G2lib@@QEAV12@0PEAV12@AEAV?$allocator@VClothoidCurve@G2lib@@@0@@Z
	??$_Uninitialized_move@PEAVLineSegment@G2lib@@V?$allocator@VLineSegment@G2lib@@@std@@@std@@YAPEAVLineSegment@G2lib@@QEAV12@0PEAV12@AEAV?$allocator@VLineSegment@G2lib@@@0@@Z
	??$_Uninitialized_move@PEAVTriangle2D@G2lib@@V?$allocator@VTriangle2D@G2lib@@@std@@@std@@YAPEAVTriangle2D@G2lib@@QEAV12@0PEAV12@AEAV?$allocator@VTriangle2D@G2lib@@@0@@Z
	??$_Uninitialized_value_construct_n@V?$allocator@N@std@@@std@@YAPEANPEAN_KAEAV?$allocator@N@0@@Z
	??$_Zero_range@PEAN@std@@YAPEANQEAN0@Z
	??$abs@N@std@@YANAEBV?$complex@N@0@@Z
	??$back_inserter@V?$vector@NV?$allocator@N@std@@@std@@@std@@YA?AV?$back_insert_iterator@V?$vector@NV?$allocator@N@std@@@std@@@0@AEAV?$vector@NV?$allocator@N@std@@@0@@Z
	??$back_inserter@V?$vector@VBiarc@G2lib@@V?$allocator@VBiarc@G2lib@@@std@@@std@@@std@@YA?AV?$back_insert_iterator@V?$vector@VBiarc@G2lib@@V?$allocator@VBiarc@G2lib@@@std@@@std@@@0@AEAV?$vector@VBiarc@G2lib@@V?$allocator@VBiarc@G2lib@@@std@@@0@@Z
	??$back_inserter@V?$vector@VClothoidCurve@G2lib@@V?$allocator@VClothoidCurve@G2lib@@@std@@@std@@@std@@YA?AV?$back_insert_iterator@V?$vector@VClothoidCurve@G2lib@@V?$allocator@VClothoidCurve@G2lib@@@std@@@std@@@0@AEAV?$vector@VClothoidCurve@G2lib@@V?$allocator@VClothoidCurve@G2lib@@@std@@@0@@Z
	??$back_inserter@V?$vector@VLineSegment@G2lib@@V?$allocator@VLineSegment@G2lib@@@std@@@std@@@std@@YA?AV?$back_insert_iterator@V?$vector@VLineSegment@G2lib@@V?$allocator@VLineSegment@G2lib@@@std@@@std@@@0@AEAV?$vector@VLineSegment@G2lib@@V?$allocator@VLineSegment@G2lib@@@std@@@0@@Z
	??$collision@VCollision_list@PolyLine@G2lib@@@AABBtree@G2lib@@QEBA_NAEBV01@VCollision_list@PolyLine@1@_N@Z
	??$collision@VT2D_approximate_collision@ClothoidCurve@G2lib@@@AABBtree@G2lib@@QEBA_NAEBV01@VT2D_approximate_collision@ClothoidCurve@1@_N@Z
	??$collision@VT2D_collision_ISO@ClothoidCurve@G2lib@@@AABBtree@G2lib@@QEBA_NAEBV01@VT2D_collision_ISO@ClothoidCurve@1@_N@Z
	??$collision@VT2D_collision_list_ISO@BiarcList@G2lib@@@AABBtree@G2lib@@QEBA_NAEBV01@VT2D_collision_list_ISO@BiarcList@1@_N@Z
	??$collision@VT2D_collision_list_ISO@ClothoidList@G2lib@@@AABBtree@G2lib@@QEBA_NAEBV01@VT2D_collision_list_ISO@ClothoidList@1@_N@Z
	??$endl@DU?$char_traits@D@std@@@std@@YAAEAV?$basic_ostream@DU?$char_traits@D@std@@@0@AEAV10@@Z
	??$make_shared@VAABBtree@G2lib@@$$V@std@@YA?AV?$shared_ptr@VAABBtree@G2lib@@@0@XZ
	??$use_facet@V?$codecvt@DDU_Mbstatet@@@std@@@std@@YAAEBV?$codecvt@DDU_Mbstatet@@@0@AEBVlocale@0@@Z
	??$use_facet@V?$ctype@D@std@@@std@@YAAEBV?$ctype@D@0@AEBVlocale@0@@Z
	??0?$basic_ostringstream@DU?$char_traits@D@std@@V?$allocator@D@2@@std@@QEAA@XZ
	??0?$basic_string@DU?$char_traits@D@std@@V?$allocator@D@2@@std@@QEAA@AEBV01@@Z
	??0?$basic_string@DU?$char_traits@D@std@@V?$allocator@D@2@@std@@QEAA@U_String_constructor_concat_tag@1@AEBV01@QEBD_K23@Z
	??0AABBtree@G2lib@@QEAA@XZ
	??0AsyPlot@G2lib@@QEAA@V?$basic_string@DU?$char_traits@D@std@@V?$allocator@D@2@@std@@_N@Z
	??0Biarc@G2lib@@QEAA@AEBV01@@Z
	??0Biarc@G2lib@@QEAA@AEBVBaseCurve@1@@Z
	??0BiarcList@G2lib@@QEAA@AEBVBaseCurve@1@@Z
	??0BiarcList@G2lib@@QEAA@AEBVBiarc@1@@Z
	??0BiarcList@G2lib@@QEAA@AEBVCircleArc@1@@Z
	??0BiarcList@G2lib@@QEAA@AEBVLineSegment@1@@Z
	??0BiarcList@G2lib@@QEAA@AEBVPolyLine@1@@Z
	??0CircleArc@G2lib@@QEAA@AEBVBaseCurve@1@@Z
	??0ClothoidCurve@G2lib@@QEAA@AEBV01@@Z
	??0ClothoidCurve@G2lib@@QEAA@AEBVBaseCurve@1@@Z
	??0ClothoidList@G2lib@@QEAA@AEBVBaseCurve@1@@Z
	??0ClothoidList@G2lib@@QEAA@AEBVBiarc@1@@Z
	??0ClothoidList@G2lib@@QEAA@AEBVBiarcList@1@@Z
	??0ClothoidList@G2lib@@QEAA@AEBVCircleArc@1@@Z
	??0ClothoidList@G2lib@@QEAA@AEBVClothoidCurve@1@@Z
	??0ClothoidList@G2lib@@QEAA@AEBVLineSegment@1@@Z
	??0ClothoidList@G2lib@@QEAA@AEBVPolyLine@1@@Z
	??0LineSegment@G2lib@@QEAA@AEBVBaseCurve@1@@Z
	??0PolyLine@G2lib@@QEAA@AEBVBaseCurve@1@@Z
	??0PolyLine@G2lib@@QEAA@AEBVBiarc@1@N@Z
	??0PolyLine@G2lib@@QEAA@AEBVCircleArc@1@N@Z
	??0PolyLine@G2lib@@QEAA@AEBVClothoidCurve@1@N@Z
	??0PolyLine@G2lib@@QEAA@AEBVClothoidList@1@N@Z
	??0PolyLine@G2lib@@QEAA@AEBVLineSegment@1@@Z
	??0bad_alloc@std@@QEAA@AEBV01@@Z
	??0bad_array_new_length@std@@QEAA@AEBV01@@Z
	??0bad_array_new_length@std@@QEAA@XZ
	??0bad_cast@std@@QEAA@AEBV01@@Z
	??0bad_cast@std@@QEAA@XZ
	??0exception@std@@QEAA@AEBV01@@Z
	??0runtime_error@std@@QEAA@AEBV01@@Z
	??0runtime_error@std@@QEAA@AEBV?$basic_string@DU?$char_traits@D@std@@V?$allocator@D@2@@1@@Z
	??1?$_Alloc_construct_ptr@V?$allocator@U?$_Tree_node@U?$pair@$$CBU?$pair@W4CurveType@G2lib@@W412@@std@@W4CurveType@G2lib@@@std@@PEAX@std@@@std@@@std@@QEAA@XZ
	??1?$_Alloc_construct_ptr@V?$allocator@U?$_Tree_node@U?$pair@$$CBVid@thread@std@@H@std@@PEAX@std@@@std@@@std@@QEAA@XZ
	??1?$_Temporary_owner@VBBox@G2lib@@@std@@QEAA@XZ
	??1?$_Tree@V?$_Tmap_traits@U?$pair@W4CurveType@G2lib@@W412@@std@@W4CurveType@G2lib@@U?$less@U?$pair@W4CurveType@G2lib@@W412@@std@@@2@V?$allocator@U?$pair@$$CBU?$pair@W4CurveType@G2lib@@W412@@std@@W4CurveType@G2lib@@@std@@@2@$0A@@std@@@std@@QEAA@XZ
	??1?$_Uninitialized_backout_al@V?$allocator@VClothoidCurve@G2lib@@@std@@@std@@QEAA@XZ
	??1?$basic_filebuf@DU?$char_traits@D@std@@@std@@UEAA@XZ
	??1?$basic_ofstream@DU?$char_traits@D@std@@@std@@UEAA@XZ
	??1?$basic_ostringstream@DU?$char_traits@D@std@@V?$allocator@D@2@@std@@UEAA@XZ
	??1?$basic_string@DU?$char_traits@D@std@@V?$allocator@D@2@@std@@QEAA@XZ
	??1?$basic_stringbuf@DU?$char_traits@D@std@@V?$allocator@D@2@@std@@UEAA@XZ
	??1?$lock_guard@Vmutex@std@@@std@@QEAA@XZ
	??1?$map@Vid@thread@std@@HU?$less@Vid@thread@std@@@3@V?$allocator@U?$pair@$$CBVid@thread@std@@H@std@@@3@@std@@QEAA@XZ
	??1?$pair@V?$shared_ptr@$$CBVBBox@G2lib@@@std@@V12@@std@@QEAA@XZ
	??1?$shared_ptr@$$CBVBBox@G2lib@@@std@@QEAA@XZ
	??1?$shared_ptr@VAABBtree@G2lib@@@std@@QEAA@XZ
	??1?$unique_ptr@V_Facet_base@std@@U?$default_delete@V_Facet_base@std@@@2@@std@@QEAA@XZ
	??1?$vector@NV?$allocator@N@std@@@std@@QEAA@XZ
	??1?$vector@U?$pair@NN@std@@V?$allocator@U?$pair@NN@std@@@2@@std@@QEAA@XZ
	??1?$vector@U?$pair@V?$shared_ptr@$$CBVBBox@G2lib@@@std@@V12@@std@@V?$allocator@U?$pair@V?$shared_ptr@$$CBVBBox@G2lib@@@std@@V12@@std@@@2@@std@@QEAA@XZ
	??1?$vector@V?$shared_ptr@$$CBVBBox@G2lib@@@std@@V?$allocator@V?$shared_ptr@$$CBVBBox@G2lib@@@std@@@2@@std@@QEAA@XZ
	??1?$vector@V?$shared_ptr@VAABBtree@G2lib@@@std@@V?$allocator@V?$shared_ptr@VAABBtree@G2lib@@@std@@@2@@std@@QEAA@XZ
	??1?$vector@VBiarc@G2lib@@V?$allocator@VBiarc@G2lib@@@std@@@std@@QEAA@XZ
	??1?$vector@VClothoidCurve@G2lib@@V?$allocator@VClothoidCurve@G2lib@@@std@@@std@@QEAA@XZ
	??1?$vector@VLineSegment@G2lib@@V?$allocator@VLineSegment@G2lib@@@std@@@std@@QEAA@XZ
	??1?$vector@VTriangle2D@G2lib@@V?$allocator@VTriangle2D@G2lib@@@std@@@std@@QEAA@XZ
	??1AABBtree@G2lib@@QEAA@XZ
	??1AsyPlot@G2lib@@QEAA@XZ
	??1BaseCurve@G2lib@@UEAA@XZ
	??1Biarc@G2lib@@UEAA@XZ
	??1BiarcList@G2lib@@UEAA@XZ
	??1CircleArc@G2lib@@UEAA@XZ
	??1ClothoidCurve@G2lib@@UEAA@XZ
	??1ClothoidList@G2lib@@UEAA@XZ
	??1LineSegment@G2lib@@UEAA@XZ
	??1PolyLine@G2lib@@UEAA@XZ
	??1_Ref_count_base@std@@UEAA@XZ
	??1_Sentry_base@?$basic_ostream@DU?$char_traits@D@std@@@std@@QEAA@XZ
	??1bad_array_new_length@std@@UEAA@XZ
	??1bad_cast@std@@UEAA@XZ
	??1exception@std@@UEAA@XZ
	??1locale@std@@QEAA@XZ
	??1mutex@std@@QEAA@XZ
	??1runtime_error@std@@UEAA@XZ
	??1sentry@?$basic_ostream@DU?$char_traits@D@std@@@std@@QEAA@XZ
	??6G2lib@@YAAEAV?$basic_ostream@DU?$char_traits@D@std@@@std@@AEAV12@AEBVBiarc@0@@Z
	??6G2lib@@YAAEAV?$basic_ostream@DU?$char_traits@D@std@@@std@@AEAV12@AEBVBiarcList@0@@Z
	??6G2lib@@YAAEAV?$basic_ostream@DU?$char_traits@D@std@@@std@@AEAV12@AEBVCircleArc@0@@Z
	??6G2lib@@YAAEAV?$basic_ostream@DU?$char_traits@D@std@@@std@@AEAV12@AEBVClothoidCurve@0@@Z
	??6G2lib@@YAAEAV?$basic_ostream@DU?$char_traits@D@std@@@std@@AEAV12@AEBVClothoidList@0@@Z
	??6G2lib@@YAAEAV?$basic_ostream@DU?$char_traits@D@std@@@std@@AEAV12@AEBVClothoidSplineG2@0@@Z
	??6G2lib@@YAAEAV?$basic_ostream@DU?$char_traits@D@std@@@std@@AEAV12@AEBVLineSegment@0@@Z
	??6G2lib@@YAAEAV?$basic_ostream@DU?$char_traits@D@std@@@std@@AEAV12@AEBVPolyLine@0@@Z
	??6G2lib@@YAAEAV?$basic_ostream@DU?$char_traits@D@std@@@std@@AEAV12@AEBVTriangle2D@0@@Z
	??A?$map@Vid@thread@std@@HU?$less@Vid@thread@std@@@3@V?$allocator@U?$pair@$$CBVid@thread@std@@H@std@@@3@@std@@QEAAAEAH$$QEAVid@thread@1@@Z
	??RCollision_list@PolyLine@G2lib@@QEBA_NV?$shared_ptr@$$CBVBBox@G2lib@@@std@@0@Z
	??RT2D_approximate_collision@ClothoidCurve@G2lib@@QEBA_NV?$shared_ptr@$$CBVBBox@G2lib@@@std@@0@Z
	??RT2D_collision_ISO@ClothoidCurve@G2lib@@QEBA_NV?$shared_ptr@$$CBVBBox@G2lib@@@std@@0@Z
	??RT2D_collision_list_ISO@BiarcList@G2lib@@QEBA_NV?$shared_ptr@$$CBVBBox@G2lib@@@std@@0@Z
	??RT2D_collision_list_ISO@ClothoidList@G2lib@@QEBA_NV?$shared_ptr@$$CBVBBox@G2lib@@@std@@0@Z
	??_D?$basic_ofstream@DU?$char_traits@D@std@@@std@@QEAAXXZ
	??_D?$basic_ostringstream@DU?$char_traits@D@std@@V?$allocator@D@2@@std@@QEAAXXZ
	?Atanc@G2lib@@YANN@Z
	?Atanc_D@G2lib@@YANN@Z
	?Atanc_DD@G2lib@@YANN@Z
	?Atanc_DDD@G2lib@@YANN@Z
	?Cosc@G2lib@@YANN@Z
	?Cosc_D@G2lib@@YANN@Z
	?Cosc_DD@G2lib@@YANN@Z
	?Cosc_DDD@G2lib@@YANN@Z
	?FresnelCS@G2lib@@YAXHNQEAN0@Z
	?FresnelCS@G2lib@@YAXNAEAN0@Z
	?GeneralizedFresnelCS@G2lib@@YAXHNNNQEAN0@Z
	?GeneralizedFresnelCS@G2lib@@YAXNNNAEAN0@Z
	?Pinfinity@ClothoidData@G2lib@@QEBAXAEAN0_N@Z
	?Sinc@G2lib@@YANN@Z
	?Sinc_D@G2lib@@YANN@Z
	?Sinc_DD@G2lib@@YANN@Z
	?Sinc_DDD@G2lib@@YANN@Z
	?X@Biarc@G2lib@@UEBANN@Z
	?X@BiarcList@G2lib@@UEBANN@Z
	?X@CircleArc@G2lib@@UEBANN@Z
	?X@ClothoidCurve@G2lib@@UEBANN@Z
	?X@ClothoidData@G2lib@@QEBANN@Z
	?X@ClothoidList@G2lib@@UEBANN@Z
	?X@G2solve3arc@G2lib@@QEBANN@Z
	?X@LineSegment@G2lib@@UEBANN@Z
	?X@PolyLine@G2lib@@UEBANN@Z
	?X_D@Biarc@G2lib@@UEBANN@Z
	?X_D@BiarcList@G2lib@@UEBANN@Z
	?X_D@CircleArc@G2lib@@UEBANN@Z
	?X_D@ClothoidCurve@G2lib@@UEBANN@Z
	?X_D@ClothoidData@G2lib@@QEBANN@Z
	?X_D@ClothoidList@G2lib@@UEBANN@Z
	?X_D@LineSegment@G2lib@@UEBANN@Z
	?X_D@PolyLine@G2lib@@UEBANN@Z
	?X_DD@Biarc@G2lib@@UEBANN@Z
	?X_DD@BiarcList@G2lib@@UEBANN@Z
	?X_DD@CircleArc@G2lib@@UEBANN@Z
	?X_DD@ClothoidCurve@G2lib@@UEBANN@Z
	?X_DD@ClothoidData@G2lib@@QEBANN@Z
	?X_DD@ClothoidList@G2lib@@UEBANN@Z
	?X_DD@LineSegment@G2lib@@UEBANN@Z
	?X_DD@PolyLine@G2lib@@UEBANN@Z
	?X_DDD@Biarc@G2lib@@UEBANN@Z
	?X_DDD@BiarcList@G2lib@@UEBANN@Z
	?X_DDD@CircleArc@G2lib@@UEBANN@Z
	?X_DDD@ClothoidCurve@G2lib@@UEBANN@Z
	?X_DDD@ClothoidData@G2lib@@QEBANN@Z
	?X_DDD@ClothoidList@G2lib@@UEBANN@Z
	?X_DDD@LineSegment@G2lib@@UEBANN@Z
	?X_DDD@PolyLine@G2lib@@UEBANN@Z
	?X_ISO@BaseCurve@G2lib@@UEBANNN@Z
	?X_ISO@Biarc@G2lib@@UEBANNN@Z
	?X_ISO@BiarcList@G2lib@@UEBANNN@Z
	?X_ISO@ClothoidCurve@G2lib@@UEBANNN@Z
	?X_ISO@ClothoidData@G2lib@@QEBANNN@Z
	?X_ISO@ClothoidList@G2lib@@UEBANNN@Z
	?X_ISO@LineSegment@G2lib@@UEBANNN@Z
	?X_ISO_D@BaseCurve@G2lib@@UEBANNN@Z
	?X_ISO_D@Biarc@G2lib@@UEBANNN@Z
	?X_ISO_D@BiarcList@G2lib@@UEBANNN@Z
	?X_ISO_D@ClothoidCurve@G2lib@@UEBANNN@Z
	?X_ISO_D@ClothoidData@G2lib@@QEBANNN@Z
	?X_ISO_D@ClothoidList@G2lib@@UEBANNN@Z
	?X_ISO_D@LineSegment@G2lib@@UEBANNN@Z
	?X_ISO_DD@BaseCurve@G2lib@@UEBANNN@Z
	?X_ISO_DD@Biarc@G2lib@@UEBANNN@Z
	?X_ISO_DD@BiarcList@G2lib@@UEBANNN@Z
	?X_ISO_DD@ClothoidCurve@G2lib@@UEBANNN@Z
	?X_ISO_DD@ClothoidData@G2lib@@QEBANNN@Z
	?X_ISO_DD@ClothoidList@G2lib@@UEBANNN@Z
	?X_ISO_DD@LineSegment@G2lib@@UEBANNN@Z
	?X_ISO_DDD@BaseCurve@G2lib@@UEBANNN@Z
	?X_ISO_DDD@Biarc@G2lib@@UEBANNN@Z
	?X_ISO_DDD@BiarcList@G2lib@@UEBANNN@Z
	?X_ISO_DDD@ClothoidCurve@G2lib@@UEBANNN@Z
	?X_ISO_DDD@ClothoidData@G2lib@@QEBANNN@Z
	?X_ISO_DDD@ClothoidList@G2lib@@UEBANNN@Z
	?X_ISO_DDD@LineSegment@G2lib@@UEBANNN@Z
	?X_SAE@ClothoidData@G2lib@@QEBANNN@Z
	?X_SAE_D@ClothoidData@G2lib@@QEBANNN@Z
	?X_SAE_DD@ClothoidData@G2lib@@QEBANNN@Z
	?X_SAE_DDD@ClothoidData@G2lib@@QEBANNN@Z
	?Y@Biarc@G2lib@@UEBANN@Z
	?Y@BiarcList@G2lib@@UEBANN@Z
	?Y@CircleArc@G2lib@@UEBANN@Z
	?Y@ClothoidCurve@G2lib@@UEBANN@Z
	?Y@ClothoidData@G2lib@@QEBANN@Z
	?Y@ClothoidList@G2lib@@UEBANN@Z
	?Y@G2solve3arc@G2lib@@QEBANN@Z
	?Y@LineSegment@G2lib@@UEBANN@Z
	?Y@PolyLine@G2lib@@UEBANN@Z
	?Y_D@Biarc@G2lib@@UEBANN@Z
	?Y_D@BiarcList@G2lib@@UEBANN@Z
	?Y_D@CircleArc@G2lib@@UEBANN@Z
	?Y_D@ClothoidCurve@G2lib@@UEBANN@Z
	?Y_D@ClothoidData@G2lib@@QEBANN@Z
	?Y_D@ClothoidList@G2lib@@UEBANN@Z
	?Y_D@LineSegment@G2lib@@UEBANN@Z
	?Y_D@PolyLine@G2lib@@UEBANN@Z
	?Y_DD@Biarc@G2lib@@UEBANN@Z
	?Y_DD@BiarcList@G2lib@@UEBANN@Z
	?Y_DD@CircleArc@G2lib@@UEBANN@Z
	?Y_DD@ClothoidCurve@G2lib@@UEBANN@Z
	?Y_DD@ClothoidData@G2lib@@QEBANN@Z
	?Y_DD@ClothoidList@G2lib@@UEBANN@Z
	?Y_DD@LineSegment@G2lib@@UEBANN@Z
	?Y_DD@PolyLine@G2lib@@UEBANN@Z
	?Y_DDD@Biarc@G2lib@@UEBANN@Z
	?Y_DDD@BiarcList@G2lib@@UEBANN@Z
	?Y_DDD@CircleArc@G2lib@@UEBANN@Z
	?Y_DDD@ClothoidCurve@G2lib@@UEBANN@Z
	?Y_DDD@ClothoidData@G2lib@@QEBANN@Z
	?Y_DDD@ClothoidList@G2lib@@UEBANN@Z
	?Y_DDD@LineSegment@G2lib@@UEBANN@Z
	?Y_DDD@PolyLine@G2lib@@UEBANN@Z
	?Y_ISO@BaseCurve@G2lib@@UEBANNN@Z
	?Y_ISO@Biarc@G2lib@@UEBANNN@Z
	?Y_ISO@BiarcList@G2lib@@UEBANNN@Z
	?Y_ISO@ClothoidCurve@G2lib@@UEBANNN@Z
	?Y_ISO@ClothoidData@G2lib@@QEBANNN@Z
	?Y_ISO@ClothoidList@G2lib@@UEBANNN@Z
	?Y_ISO@LineSegment@G2lib@@UEBANNN@Z
	?Y_ISO_D@BaseCurve@G2lib@@UEBANNN@Z
	?Y_ISO_D@Biarc@G2lib@@UEBANNN@Z
	?Y_ISO_D@BiarcList@G2lib@@UEBANNN@Z
	?Y_ISO_D@ClothoidCurve@G2lib@@UEBANNN@Z
	?Y_ISO_D@ClothoidData@G2lib@@QEBANNN@Z
	?Y_ISO_D@ClothoidList@G2lib@@UEBANNN@Z
	?Y_ISO_D@LineSegment@G2lib@@UEBANNN@Z
	?Y_ISO_DD@BaseCurve@G2lib@@UEBANNN@Z
	?Y_ISO_DD@Biarc@G2lib@@UEBANNN@Z
	?Y_ISO_DD@BiarcList@G2lib@@UEBANNN@Z
	?Y_ISO_DD@ClothoidCurve@G2lib@@UEBANNN@Z
	?Y_ISO_DD@ClothoidData@G2lib@@QEBANNN@Z
	?Y_ISO_DD@ClothoidList@G2lib@@UEBANNN@Z
	?Y_ISO_DD@LineSegment@G2lib@@UEBANNN@Z
	?Y_ISO_DDD@BaseCurve@G2lib@@UEBANNN@Z
	?Y_ISO_DDD@Biarc@G2lib@@UEBANNN@Z
	?Y_ISO_DDD@BiarcList@G2lib@@UEBANNN@Z
	?Y_ISO_DDD@ClothoidCurve@G2lib@@UEBANNN@Z
	?Y_ISO_DDD@ClothoidData@G2lib@@QEBANNN@Z
	?Y_ISO_DDD@ClothoidList@G2lib@@UEBANNN@Z
	?Y_ISO_DDD@LineSegment@G2lib@@UEBANNN@Z
	?Y_SAE@ClothoidData@G2lib@@QEBANNN@Z
	?Y_SAE_D@ClothoidData@G2lib@@QEBANNN@Z
	?Y_SAE_DD@ClothoidData@G2lib@@QEBANNN@Z
	?Y_SAE_DDD@ClothoidData@G2lib@@QEBANNN@Z
	?_Change_array@?$vector@NV?$allocator@N@std@@@std@@AEAAXQEAN_K1@Z
	?_Change_array@?$vector@U?$pair@NN@std@@V?$allocator@U?$pair@NN@std@@@2@@std@@AEAAXQEAU?$pair@NN@2@_K1@Z
	?_Change_array@?$vector@V?$shared_ptr@$$CBVBBox@G2lib@@@std@@V?$allocator@V?$shared_ptr@$$CBVBBox@G2lib@@@std@@@2@@std@@AEAAXQEAV?$shared_ptr@$$CBVBBox@G2lib@@@2@_K1@Z
	?_Change_array@?$vector@VBiarc@G2lib@@V?$allocator@VBiarc@G2lib@@@std@@@std@@AEAAXQEAVBiarc@G2lib@@_K1@Z
	?_Change_array@?$vector@VClothoidCurve@G2lib@@V?$allocator@VClothoidCurve@G2lib@@@std@@@std@@AEAAXQEAVClothoidCurve@G2lib@@_K1@Z
	?_Change_array@?$vector@VLineSegment@G2lib@@V?$allocator@VLineSegment@G2lib@@@std@@@std@@AEAAXQEAVLineSegment@G2lib@@_K1@Z
	?_Change_array@?$vector@VTriangle2D@G2lib@@V?$allocator@VTriangle2D@G2lib@@@std@@@std@@AEAAXQEAVTriangle2D@G2lib@@_K1@Z
	?_Delete_this@?$_Ref_count@VBBox@G2lib@@@std@@EEAAXXZ
	?_Delete_this@?$_Ref_count_obj2@$$CBVBBox@G2lib@@@std@@EEAAXXZ
	?_Delete_this@?$_Ref_count_obj2@VAABBtree@G2lib@@@std@@EEAAXXZ
	?_Destroy@?$_Ref_count@VBBox@G2lib@@@std@@EEAAXXZ
	?_Destroy@?$_Ref_count_obj2@$$CBVBBox@G2lib@@@std@@EEAAXXZ
	?_Destroy@?$_Ref_count_obj2@VAABBtree@G2lib@@@std@@EEAAXXZ
	?_Destroy@?$vector@U?$pair@V?$shared_ptr@$$CBVBBox@G2lib@@@std@@V12@@std@@V?$allocator@U?$pair@V?$shared_ptr@$$CBVBBox@G2lib@@@std@@V12@@std@@@2@@std@@AEAAXPEAU?$pair@V?$shared_ptr@$$CBVBBox@G2lib@@@std@@V12@@2@0@Z
	?_Destroy@?$vector@V?$shared_ptr@$$CBVBBox@G2lib@@@std@@V?$allocator@V?$shared_ptr@$$CBVBBox@G2lib@@@std@@@2@@std@@AEAAXPEAV?$shared_ptr@$$CBVBBox@G2lib@@@2@0@Z
	?_Destroy@?$vector@V?$shared_ptr@VAABBtree@G2lib@@@std@@V?$allocator@V?$shared_ptr@VAABBtree@G2lib@@@std@@@2@@std@@AEAAXPEAV?$shared_ptr@VAABBtree@G2lib@@@2@0@Z
	?_Destroy@?$vector@VBiarc@G2lib@@V?$allocator@VBiarc@G2lib@@@std@@@std@@AEAAXPEAVBiarc@G2lib@@0@Z
	?_Destroy@?$vector@VClothoidCurve@G2lib@@V?$allocator@VClothoidCurve@G2lib@@@std@@@std@@AEAAXPEAVClothoidCurve@G2lib@@0@Z
	?_Destroy@?$vector@VLineSegment@G2lib@@V?$allocator@VLineSegment@G2lib@@@std@@@std@@AEAAXPEAVLineSegment@G2lib@@0@Z
	?_Endwrite@?$basic_filebuf@DU?$char_traits@D@std@@@std@@IEAA_NXZ
	?_Get_deleter@_Ref_count_base@std@@UEBAPEAXAEBVtype_info@@@Z
	?_Getal@?$vector@NV?$allocator@N@std@@@std@@AEAAAEAV?$allocator@N@2@XZ
	?_Getal@?$vector@U?$pair@NN@std@@V?$allocator@U?$pair@NN@std@@@2@@std@@AEAAAEAV?$allocator@U?$pair@NN@std@@@2@XZ
	?_Getal@?$vector@V?$shared_ptr@$$CBVBBox@G2lib@@@std@@V?$allocator@V?$shared_ptr@$$CBVBBox@G2lib@@@std@@@2@@std@@AEAAAEAV?$allocator@V?$shared_ptr@$$CBVBBox@G2lib@@@std@@@2@XZ
	?_Getal@?$vector@VBiarc@G2lib@@V?$allocator@VBiarc@G2lib@@@std@@@std@@AEAAAEAV?$allocator@VBiarc@G2lib@@@2@XZ
	?_Getal@?$vector@VClothoidCurve@G2lib@@V?$allocator@VClothoidCurve@G2lib@@@std@@@std@@AEAAAEAV?$allocator@VClothoidCurve@G2lib@@@2@XZ
	?_Getal@?$vector@VLineSegment@G2lib@@V?$allocator@VLineSegment@G2lib@@@std@@@std@@AEAAAEAV?$allocator@VLineSegment@G2lib@@@2@XZ
	?_Getal@?$vector@VTriangle2D@G2lib@@V?$allocator@VTriangle2D@G2lib@@@std@@@std@@AEAAAEAV?$allocator@VTriangle2D@G2lib@@@2@XZ
	?_Insert_node@?$_Tree_val@U?$_Tree_simple_types@U?$pair@$$CBU?$pair@W4CurveType@G2lib@@W412@@std@@W4CurveType@G2lib@@@std@@@std@@@std@@QEAAPEAU?$_Tree_node@U?$pair@$$CBU?$pair@W4CurveType@G2lib@@W412@@std@@W4CurveType@G2lib@@@std@@PEAX@2@U?$_Tree_id@PEAU?$_Tree_node@U?$pair@$$CBU?$pair@W4CurveType@G2lib@@W412@@std@@W4CurveType@G2lib@@@std@@PEAX@std@@@2@QEAU32@@Z
	?_Insert_node@?$_Tree_val@U?$_Tree_simple_types@U?$pair@$$CBVid@thread@std@@H@std@@@std@@@std@@QEAAPEAU?$_Tree_node@U?$pair@$$CBVid@thread@std@@H@std@@PEAX@2@U?$_Tree_id@PEAU?$_Tree_node@U?$pair@$$CBVid@thread@std@@H@std@@PEAX@std@@@2@QEAU32@@Z
	?_Lock@?$basic_filebuf@DU?$char_traits@D@std@@@std@@UEAAXXZ
	?_Maklocwcs@std@@YAPEA_WPEB_W@Z
	?_Reallocate_exactly@?$vector@NV?$allocator@N@std@@@std@@AEAAX_K@Z
	?_Reallocate_exactly@?$vector@U?$pair@NN@std@@V?$allocator@U?$pair@NN@std@@@2@@std@@AEAAX_K@Z
	?_Reallocate_exactly@?$vector@V?$shared_ptr@$$CBVBBox@G2lib@@@std@@V?$allocator@V?$shared_ptr@$$CBVBBox@G2lib@@@std@@@2@@std@@AEAAX_K@Z
	?_Reallocate_exactly@?$vector@VBiarc@G2lib@@V?$allocator@VBiarc@G2lib@@@std@@@std@@AEAAX_K@Z
	?_Reallocate_exactly@?$vector@VClothoidCurve@G2lib@@V?$allocator@VClothoidCurve@G2lib@@@std@@@std@@AEAAX_K@Z
	?_Reallocate_exactly@?$vector@VLineSegment@G2lib@@V?$allocator@VLineSegment@G2lib@@@std@@@std@@AEAAX_K@Z
	?_Reallocate_exactly@?$vector@VTriangle2D@G2lib@@V?$allocator@VTriangle2D@G2lib@@@std@@@std@@AEAAX_K@Z
	?_Reset_back@?$basic_filebuf@DU?$char_traits@D@std@@@std@@AEAAXXZ
	?_Throw_bad_array_new_length@std@@YAXXZ
	?_Throw_bad_cast@std@@YAXXZ
	?_Throw_tree_length_error@std@@YAXXZ
	?_Umove@?$vector@V?$shared_ptr@$$CBVBBox@G2lib@@@std@@V?$allocator@V?$shared_ptr@$$CBVBBox@G2lib@@@std@@@2@@std@@AEAAPEAV?$shared_ptr@$$CBVBBox@G2lib@@@2@PEAV32@00@Z
	?_Umove@?$vector@VClothoidCurve@G2lib@@V?$allocator@VClothoidCurve@G2lib@@@std@@@std@@AEAAPEAVClothoidCurve@G2lib@@PEAV34@00@Z
	?_Umove@?$vector@VLineSegment@G2lib@@V?$allocator@VLineSegment@G2lib@@@std@@@std@@AEAAPEAVLineSegment@G2lib@@PEAV34@00@Z
	?_Umove@?$vector@VTriangle2D@G2lib@@V?$allocator@VTriangle2D@G2lib@@@std@@@std@@AEAAPEAVTriangle2D@G2lib@@PEAV34@00@Z
	?_Umove_if_noexcept@?$vector@V?$shared_ptr@$$CBVBBox@G2lib@@@std@@V?$allocator@V?$shared_ptr@$$CBVBBox@G2lib@@@std@@@2@@std@@AEAAXPEAV?$shared_ptr@$$CBVBBox@G2lib@@@2@00@Z
	?_Umove_if_noexcept@?$vector@VClothoidCurve@G2lib@@V?$allocator@VClothoidCurve@G2lib@@@std@@@std@@AEAAXPEAVClothoidCurve@G2lib@@00@Z
	?_Umove_if_noexcept@?$vector@VLineSegment@G2lib@@V?$allocator@VLineSegment@G2lib@@@std@@@std@@AEAAXPEAVLineSegment@G2lib@@00@Z
	?_Umove_if_noexcept@?$vector@VTriangle2D@G2lib@@V?$allocator@VTriangle2D@G2lib@@@std@@@std@@AEAAXPEAVTriangle2D@G2lib@@00@Z
	?_Unlock@?$basic_filebuf@DU?$char_traits@D@std@@@std@@UEAAXXZ
	?_Xlen_string@std@@YAXXZ
	?_Xlength@?$vector@NV?$allocator@N@std@@@std@@CAXXZ
	?_Xlength@?$vector@U?$pair@NN@std@@V?$allocator@U?$pair@NN@std@@@2@@std@@CAXXZ
	?_Xlength@?$vector@U?$pair@V?$shared_ptr@$$CBVBBox@G2lib@@@std@@V12@@std@@V?$allocator@U?$pair@V?$shared_ptr@$$CBVBBox@G2lib@@@std@@V12@@std@@@2@@std@@CAXXZ
	?_Xlength@?$vector@V?$shared_ptr@$$CBVBBox@G2lib@@@std@@V?$allocator@V?$shared_ptr@$$CBVBBox@G2lib@@@std@@@2@@std@@CAXXZ
	?_Xlength@?$vector@V?$shared_ptr@VAABBtree@G2lib@@@std@@V?$allocator@V?$shared_ptr@VAABBtree@G2lib@@@std@@@2@@std@@CAXXZ
	?_Xlength@?$vector@VBiarc@G2lib@@V?$allocator@VBiarc@G2lib@@@std@@@std@@CAXXZ
	?_Xlength@?$vector@VClothoidCurve@G2lib@@V?$allocator@VClothoidCurve@G2lib@@@std@@@std@@CAXXZ
	?_Xlength@?$vector@VLineSegment@G2lib@@V?$allocator@VLineSegment@G2lib@@@std@@@std@@CAXXZ
	?_Xlength@?$vector@VTriangle2D@G2lib@@V?$allocator@VTriangle2D@G2lib@@@std@@@std@@CAXXZ
	?aabb_intersect_ISO@ClothoidCurve@G2lib@@AEBA_NAEBVTriangle2D@2@NPEBV12@0NAEAN2@Z
	?allocate@?$allocator@D@std@@QEAAPEAD_K@Z
	?allocate@?$allocator@N@std@@QEAAPEAN_K@Z
	?allocate@?$allocator@U?$pair@NN@std@@@std@@QEAAPEAU?$pair@NN@2@_K@Z
	?allocate@?$allocator@V?$shared_ptr@$$CBVBBox@G2lib@@@std@@@std@@QEAAPEAV?$shared_ptr@$$CBVBBox@G2lib@@@2@_K@Z
	?allocate@?$allocator@VBiarc@G2lib@@@std@@QEAAPEAVBiarc@G2lib@@_K@Z
	?allocate@?$allocator@VClothoidCurve@G2lib@@@std@@QEAAPEAVClothoidCurve@G2lib@@_K@Z
	?allocate@?$allocator@VLineSegment@G2lib@@@std@@QEAAPEAVLineSegment@G2lib@@_K@Z
	?allocate@?$allocator@VTriangle2D@G2lib@@@std@@QEAAPEAVTriangle2D@G2lib@@_K@Z
	?aplus@ClothoidData@G2lib@@QEBANN@Z
	?append@?$basic_string@DU?$char_traits@D@std@@V?$allocator@D@2@@std@@QEAAAEAV12@QEBD_K@Z
	?approximate_collision_ISO@ClothoidCurve@G2lib@@QEBA_NNAEBV12@NNN@Z
	?assign@?$basic_string@DU?$char_traits@D@std@@V?$allocator@D@2@@std@@QEAAAEAV12@QEBD_K@Z
	?back@?$vector@NV?$allocator@N@std@@@std@@QEAAAEANXZ
	?back@?$vector@NV?$allocator@N@std@@@std@@QEBAAEBNXZ
	?backtrace@G2lib@@YAXAEAV?$basic_ostream@DU?$char_traits@D@std@@@std@@@Z
	?bbTriangle@CircleArc@G2lib@@QEBA_NAEAN00000@Z
	?bbTriangle@ClothoidData@G2lib@@QEBA_NNAEAN00000@Z
	?bbTriangle_ISO@CircleArc@G2lib@@QEBA_NNAEAN00000@Z
	?bbTriangle_ISO@ClothoidData@G2lib@@QEBA_NNNAEAN00000@Z
	?bbTriangles@CircleArc@G2lib@@QEBAXAEAV?$vector@VTriangle2D@G2lib@@V?$allocator@VTriangle2D@G2lib@@@std@@@std@@NNH@Z
	?bbTriangles_ISO@BiarcList@G2lib@@QEBAXNAEAV?$vector@VTriangle2D@G2lib@@V?$allocator@VTriangle2D@G2lib@@@std@@@std@@NN@Z
	?bbTriangles_ISO@CircleArc@G2lib@@QEBAXNAEAV?$vector@VTriangle2D@G2lib@@V?$allocator@VTriangle2D@G2lib@@@std@@@std@@NNH@Z
	?bbTriangles_ISO@ClothoidCurve@G2lib@@QEBAXNAEAV?$vector@VTriangle2D@G2lib@@V?$allocator@VTriangle2D@G2lib@@@std@@@std@@NNH@Z
	?bbTriangles_ISO@ClothoidList@G2lib@@QEBAXNAEAV?$vector@VTriangle2D@G2lib@@V?$allocator@VTriangle2D@G2lib@@@std@@@std@@NN@Z
	?bbTriangles_internal_ISO@ClothoidCurve@G2lib@@AEBAXNAEAV?$vector@VTriangle2D@G2lib@@V?$allocator@VTriangle2D@G2lib@@@std@@@std@@NNNNH@Z
	?bbox@Biarc@G2lib@@UEBAXAEAN000@Z
	?bbox@BiarcList@G2lib@@UEBAXAEAN000@Z
	?bbox@CircleArc@G2lib@@UEBAXAEAN000@Z
	?bbox@ClothoidCurve@G2lib@@UEBAXAEAN000@Z
	?bbox@ClothoidList@G2lib@@UEBAXAEAN000@Z
	?bbox@LineSegment@G2lib@@UEBAXAEAN000@Z
	?bbox@PolyLine@G2lib@@UEBAXAEAN000@Z
	?bbox@Triangle2D@G2lib@@QEBAXAEAN000@Z
	?bbox_ISO@Biarc@G2lib@@UEBAXNAEAN000@Z
	?bbox_ISO@BiarcList@G2lib@@UEBAXNAEAN000@Z
	?bbox_ISO@CircleArc@G2lib@@UEBAXNAEAN000@Z
	?bbox_ISO@ClothoidCurve@G2lib@@UEBAXNAEAN000@Z
	?bbox_ISO@ClothoidList@G2lib@@UEBAXNAEAN000@Z
	?bbox_ISO@LineSegment@G2lib@@UEBAXNAEAN000@Z
	?bbox_ISO@PolyLine@G2lib@@UEBAXNAEAN000@Z
	?build@AABBtree@G2lib@@QEAAXAEBV?$vector@V?$shared_ptr@$$CBVBBox@G2lib@@@std@@V?$allocator@V?$shared_ptr@$$CBVBBox@G2lib@@@std@@@2@@std@@@Z
	?build@Biarc@G2lib@@QEAA_NNNNNNN@Z
	?build@ClothoidList@G2lib@@QEAA_NNNNHQEBN0@Z
	?build@ClothoidSplineG2@G2lib@@QEAAXQEBN0H@Z
	?build@G2solve2arc@G2lib@@QEAAHNNNNNNNN@Z
	?build@G2solve3arc@G2lib@@QEAAHNNNNNNNNNN@Z
	?build@G2solveCLC@G2lib@@QEAAHNNNNNNNN@Z
	?build@PolyLine@G2lib@@QEAAXAEBVBiarc@2@N@Z
	?build@PolyLine@G2lib@@QEAAXAEBVCircleArc@2@N@Z
	?build@PolyLine@G2lib@@QEAAXAEBVClothoidCurve@2@N@Z
	?build@PolyLine@G2lib@@QEAAXAEBVClothoidList@2@N@Z
	?build@PolyLine@G2lib@@QEAAXAEBVLineSegment@2@@Z
	?build@PolyLine@G2lib@@QEAAXQEBN0H@Z
	?buildSolution@G2solve2arc@G2lib@@AEAAXNN@Z
	?buildSolution@G2solve3arc@G2lib@@AEAAXNN@Z
	?buildSolution@G2solveCLC@G2lib@@AEAA_NNN@Z
	?build_2P@LineSegment@G2lib@@QEAAXNNNN@Z
	?build_3P@Biarc@G2lib@@QEAA_NNNNNNN@Z
	?build_3P@CircleArc@G2lib@@QEAA_NNNNNNN@Z
	?build_AABBtree@PolyLine@G2lib@@QEBAXAEAVAABBtree@2@@Z
	?build_AABBtree_ISO@BiarcList@G2lib@@QEBAXNNN@Z
	?build_AABBtree_ISO@ClothoidCurve@G2lib@@QEBAXNNN@Z
	?build_AABBtree_ISO@ClothoidList@G2lib@@QEBAXNNN@Z
	?build_G1@BiarcList@G2lib@@QEAA_NHQEBN00@Z
	?build_G1@BiarcList@G2lib@@QEAA_NHQEBN0@Z
	?build_G1@CircleArc@G2lib@@QEAA_NNNNNN@Z
	?build_G1@ClothoidCurve@G2lib@@QEAAHNNNNNNN@Z
	?build_G1@ClothoidData@G2lib@@QEAAHNNNNNNNAEAN_NQEAN22@Z
	?build_G1@ClothoidList@G2lib@@QEAA_NHQEBN00@Z
	?build_G1@ClothoidList@G2lib@@QEAA_NHQEBN0@Z
	?build_fixed_length@G2solve3arc@G2lib@@QEAAHNNNNNNNNNN@Z
	?build_forward@ClothoidData@G2lib@@QEAA_NNNNNNNNAEAN@Z
	?build_guess_theta@G2lib@@YA_NHQEBN0QEAN@Z
	?center@CircleArc@G2lib@@QEBAXAEAN0@Z
	?changeCurvilinearOrigin@CircleArc@G2lib@@QEAAXNN@Z
	?changeOrigin@Biarc@G2lib@@UEAAXNN@Z
	?changeOrigin@BiarcList@G2lib@@UEAAXNN@Z
	?changeOrigin@CircleArc@G2lib@@UEAAXNN@Z
	?changeOrigin@ClothoidCurve@G2lib@@UEAAXNN@Z
	?changeOrigin@ClothoidList@G2lib@@UEAAXNN@Z
	?changeOrigin@LineSegment@G2lib@@UEAAXNN@Z
	?changeOrigin@PolyLine@G2lib@@UEAAXNN@Z
	?check@Cubic@PolynomialRoots@@QEBA_NAEAV?$basic_ostream@DU?$char_traits@D@std@@@std@@@Z
	?check@Quadratic@PolynomialRoots@@QEBA_NAEAV?$basic_ostream@DU?$char_traits@D@std@@@std@@@Z
	?check@Quartic@PolynomialRoots@@QEBA_NAEAV?$basic_ostream@DU?$char_traits@D@std@@@std@@@Z
	?clear@?$vector@VBiarc@G2lib@@V?$allocator@VBiarc@G2lib@@@std@@@std@@QEAAXXZ
	?clear@?$vector@VClothoidCurve@G2lib@@V?$allocator@VClothoidCurve@G2lib@@@std@@@std@@QEAAXXZ
	?clear@AABBtree@G2lib@@QEAAXXZ
	?close@?$basic_filebuf@DU?$char_traits@D@std@@@std@@QEAAPEAV12@XZ
	?closeFile@AsyPlot@G2lib@@AEAA_NXZ
	?closestPointBySample@ClothoidCurve@G2lib@@QEBANNNNAEAN00@Z
	?closestPointInRange_ISO@ClothoidList@G2lib@@QEBAHNNHHAEAN0000AEAH@Z
	?closestPoint_ISO@Biarc@G2lib@@UEBAHNNAEAN0000@Z
	?closestPoint_ISO@Biarc@G2lib@@UEBAHNNNAEAN0000@Z
	?closestPoint_ISO@BiarcList@G2lib@@UEBAHNNAEAN0000@Z
	?closestPoint_ISO@BiarcList@G2lib@@UEBAHNNNAEAN0000@Z
	?closestPoint_ISO@CircleArc@G2lib@@UEBAHNNAEAN0000@Z
	?closestPoint_ISO@CircleArc@G2lib@@UEBAHNNNAEAN0000@Z
	?closestPoint_ISO@ClothoidCurve@G2lib@@UEBAHNNAEAN0000@Z
	?closestPoint_ISO@ClothoidCurve@G2lib@@UEBAHNNNAEAN0000@Z
	?closestPoint_ISO@ClothoidList@G2lib@@UEBAHNNAEAN0000@Z
	?closestPoint_ISO@ClothoidList@G2lib@@UEBAHNNNAEAN0000@Z
	?closestPoint_ISO@LineSegment@G2lib@@UEBAHNNAEAN0000@Z
	?closestPoint_ISO@LineSegment@G2lib@@UEBAHNNNAEAN0000@Z
	?closestPoint_ISO@PolyLine@G2lib@@UEBAHNNAEAN0000@Z
	?closestPoint_ISO@PolyLine@G2lib@@UEBAHNNNAEAN0000@Z
	?closestPoint_internal_ISO@ClothoidCurve@G2lib@@AEBAXNNNNNAEAN000@Z
	?closestSegment@ClothoidList@G2lib@@QEBAHNN@Z
	?collision@BiarcList@G2lib@@QEBA_NAEBV12@@Z
	?collision@CircleArc@G2lib@@QEBA_NAEBV12@@Z
	?collision@ClothoidCurve@G2lib@@QEBA_NAEBV12@@Z
	?collision@ClothoidList@G2lib@@QEBA_NAEBV12@@Z
	?collision@G2lib@@YA_NAEBVBaseCurve@1@0@Z
	?collision@LineSegment@G2lib@@QEBA_NAEBV12@@Z
	?collision@PolyLine@G2lib@@QEBA_NAEBV12@@Z
	?collision_ISO@BiarcList@G2lib@@QEBA_NNAEBV12@N@Z
	?collision_ISO@CircleArc@G2lib@@QEBA_NNAEBV12@N@Z
	?collision_ISO@ClothoidCurve@G2lib@@QEBA_NNAEBV12@N@Z
	?collision_ISO@ClothoidList@G2lib@@QEBA_NNAEBV12@N@Z
	?collision_ISO@G2lib@@YA_NAEBVBaseCurve@1@N0N@Z
	?collision_ISO@LineSegment@G2lib@@QEBA_NNAEBV12@N@Z
	?compileFile@AsyPlot@G2lib@@AEAAXXZ
	?constraints@ClothoidSplineG2@G2lib@@QEBA_NQEBNQEAN@Z
	?copy@BiarcList@G2lib@@QEAAXAEBV12@@Z
	?copy@ClothoidList@G2lib@@QEAAXAEBV12@@Z
	?copy@PolyLine@G2lib@@QEAAXAEBV12@@Z
	?curvatureMinMax@ClothoidCurve@G2lib@@QEBANAEAN0@Z
	?curvatureMinMax@G2solve3arc@G2lib@@QEBANAEAN0@Z
	?curvatureTotalVariation@ClothoidCurve@G2lib@@QEBANXZ
	?deallocate@?$allocator@D@std@@QEAAXQEAD_K@Z
	?deallocate@?$allocator@N@std@@QEAAXQEAN_K@Z
	?deallocate@?$allocator@U?$pair@NN@std@@@std@@QEAAXQEAU?$pair@NN@2@_K@Z
	?deallocate@?$allocator@U?$pair@V?$shared_ptr@$$CBVBBox@G2lib@@@std@@V12@@std@@@std@@QEAAXQEAU?$pair@V?$shared_ptr@$$CBVBBox@G2lib@@@std@@V12@@2@_K@Z
	?deallocate@?$allocator@V?$shared_ptr@$$CBVBBox@G2lib@@@std@@@std@@QEAAXQEAV?$shared_ptr@$$CBVBBox@G2lib@@@2@_K@Z
	?deallocate@?$allocator@V?$shared_ptr@VAABBtree@G2lib@@@std@@@std@@QEAAXQEAV?$shared_ptr@VAABBtree@G2lib@@@2@_K@Z
	?deallocate@?$allocator@VBiarc@G2lib@@@std@@QEAAXQEAVBiarc@G2lib@@_K@Z
	?deallocate@?$allocator@VClothoidCurve@G2lib@@@std@@QEAAXQEAVClothoidCurve@G2lib@@_K@Z
	?deallocate@?$allocator@VLineSegment@G2lib@@@std@@QEAAXQEAVLineSegment@G2lib@@_K@Z
	?deallocate@?$allocator@VTriangle2D@G2lib@@@std@@QEAAXQEAVTriangle2D@G2lib@@_K@Z
	?displayAxes@AsyPlot@G2lib@@AEBAXXZ
	?displayAxes@AsyPlot@G2lib@@QEBAXAEBV?$basic_string@DU?$char_traits@D@std@@V?$allocator@D@2@@std@@0NNNN@Z
	?distMax@Triangle2D@G2lib@@QEBANNN@Z
	?distMin@Triangle2D@G2lib@@QEBANNN@Z
	?distance@BBox@G2lib@@QEBANNN@Z
	?distance@BaseCurve@G2lib@@UEBANNN@Z
	?dot@AsyPlot@G2lib@@QEBAXNNAEBV?$basic_string@DU?$char_traits@D@std@@V?$allocator@D@2@@std@@@Z
	?drawClothoid@AsyPlot@G2lib@@QEBAXAEBVClothoidCurve@2@AEBV?$basic_string@DU?$char_traits@D@std@@V?$allocator@D@2@@std@@N@Z
	?drawLine@AsyPlot@G2lib@@QEBAXNNNNAEBV?$basic_string@DU?$char_traits@D@std@@V?$allocator@D@2@@std@@@Z
	?drawRect@AsyPlot@G2lib@@QEBAXNNNNNNNNAEBV?$basic_string@DU?$char_traits@D@std@@V?$allocator@D@2@@std@@@Z
	?empty@AABBtree@G2lib@@QEBA_NXZ
	?erase@?$vector@VBiarc@G2lib@@V?$allocator@VBiarc@G2lib@@@std@@@std@@QEAA?AV?$_Vector_iterator@V?$_Vector_val@U?$_Simple_types@VBiarc@G2lib@@@std@@@std@@@2@V?$_Vector_const_iterator@V?$_Vector_val@U?$_Simple_types@VBiarc@G2lib@@@std@@@std@@@2@0@Z
	?erase@?$vector@VClothoidCurve@G2lib@@V?$allocator@VClothoidCurve@G2lib@@@std@@@std@@QEAA?AV?$_Vector_iterator@V?$_Vector_val@U?$_Simple_types@VClothoidCurve@G2lib@@@std@@@std@@@2@V?$_Vector_const_iterator@V?$_Vector_val@U?$_Simple_types@VClothoidCurve@G2lib@@@std@@@std@@@2@0@Z
	?erase@?$vector@VLineSegment@G2lib@@V?$allocator@VLineSegment@G2lib@@@std@@@std@@QEAA?AV?$_Vector_iterator@V?$_Vector_val@U?$_Simple_types@VLineSegment@G2lib@@@std@@@std@@@2@V?$_Vector_const_iterator@V?$_Vector_val@U?$_Simple_types@VLineSegment@G2lib@@@std@@@std@@@2@0@Z
	?eval@Biarc@G2lib@@UEBAXNAEAN0@Z
	?eval@BiarcList@G2lib@@UEBAXNAEAN0@Z
	?eval@CircleArc@G2lib@@UEBAXNAEAN0@Z
	?eval@ClothoidCurve@G2lib@@UEBAXNAEAN0@Z
	?eval@ClothoidData@G2lib@@QEBAXNAEAN0@Z
	?eval@ClothoidData@G2lib@@QEBAXNAEAV12@@Z
	?eval@ClothoidList@G2lib@@UEBAXNAEAN0@Z
	?eval@Cubic@PolynomialRoots@@QEBAXNAEAN0@Z
	?eval@G2solve3arc@G2lib@@QEBAXNAEAN000@Z
	?eval@G2solve3arc@G2lib@@QEBAXNAEAN0@Z
	?eval@LineSegment@G2lib@@UEBAXNAEAN0@Z
	?eval@PolyLine@G2lib@@UEBAXNAEAN0@Z
	?eval@Quadratic@PolynomialRoots@@QEBAXNAEAN0@Z
	?evalA@G2solve2arc@G2lib@@AEBAXNNAEAN00@Z
	?evalA@G2solve2arc@G2lib@@AEBAXNNAEAN@Z
	?evalF@G2solve2arc@G2lib@@AEBAXQEBNQEAN@Z
	?evalF@G2solve3arc@G2lib@@AEBAXQEBNQEAN@Z
	?evalFJ@G2solve2arc@G2lib@@AEBAXQEBNQEANQEAY01N@Z
	?evalFJ@G2solve3arc@G2lib@@AEBAXQEBNQEANQEAY01N@Z
	?evalG@G2solve2arc@G2lib@@AEBAXNNNNQEAN00@Z
	?evalG@G2solve2arc@G2lib@@AEBAXNNNNQEAN@Z
	?evalPoly@PolynomialRoots@@YANQEBNHN@Z
	?evalPolyC@PolynomialRoots@@YA?AV?$complex@N@std@@QEBNHAEBV23@@Z
	?eval_D@Biarc@G2lib@@UEBAXNAEAN0@Z
	?eval_D@BiarcList@G2lib@@UEBAXNAEAN0@Z
	?eval_D@CircleArc@G2lib@@UEBAXNAEAN0@Z
	?eval_D@ClothoidCurve@G2lib@@UEBAXNAEAN0@Z
	?eval_D@ClothoidData@G2lib@@QEBAXNAEAN0@Z
	?eval_D@ClothoidList@G2lib@@UEBAXNAEAN0@Z
	?eval_D@G2solve3arc@G2lib@@QEBAXNAEAN0@Z
	?eval_D@LineSegment@G2lib@@UEBAXNAEAN0@Z
	?eval_D@PolyLine@G2lib@@UEBAXNAEAN0@Z
	?eval_DD@Biarc@G2lib@@UEBAXNAEAN0@Z
	?eval_DD@BiarcList@G2lib@@UEBAXNAEAN0@Z
	?eval_DD@CircleArc@G2lib@@UEBAXNAEAN0@Z
	?eval_DD@ClothoidCurve@G2lib@@UEBAXNAEAN0@Z
	?eval_DD@ClothoidData@G2lib@@QEBAXNAEAN0@Z
	?eval_DD@ClothoidList@G2lib@@UEBAXNAEAN0@Z
	?eval_DD@G2solve3arc@G2lib@@QEBAXNAEAN0@Z
	?eval_DD@LineSegment@G2lib@@UEBAXNAEAN0@Z
	?eval_DD@PolyLine@G2lib@@UEBAXNAEAN0@Z
	?eval_DDD@Biarc@G2lib@@UEBAXNAEAN0@Z
	?eval_DDD@BiarcList@G2lib@@UEBAXNAEAN0@Z
	?eval_DDD@CircleArc@G2lib@@UEBAXNAEAN0@Z
	?eval_DDD@ClothoidCurve@G2lib@@UEBAXNAEAN0@Z
	?eval_DDD@ClothoidData@G2lib@@QEBAXNAEAN0@Z
	?eval_DDD@ClothoidList@G2lib@@UEBAXNAEAN0@Z
	?eval_DDD@G2solve3arc@G2lib@@QEBAXNAEAN0@Z
	?eval_DDD@LineSegment@G2lib@@UEBAXNAEAN0@Z
	?eval_DDD@PolyLine@G2lib@@UEBAXNAEAN0@Z
	?eval_ISO@BaseCurve@G2lib@@UEBAXNNAEAN0@Z
	?eval_ISO@Biarc@G2lib@@UEBAXNNAEAN0@Z
	?eval_ISO@BiarcList@G2lib@@UEBAXNNAEAN0@Z
	?eval_ISO@ClothoidCurve@G2lib@@UEBAXNNAEAN0@Z
	?eval_ISO@ClothoidData@G2lib@@QEBAXNNAEAN0@Z
	?eval_ISO@ClothoidList@G2lib@@UEBAXNNAEAN0@Z
	?eval_ISO@G2solve3arc@G2lib@@QEBAXNNAEAN0@Z
	?eval_ISO@LineSegment@G2lib@@UEBAXNNAEAN0@Z
	?eval_ISO@PolyLine@G2lib@@UEBAXNNAEAN0@Z
	?eval_ISO_D@BaseCurve@G2lib@@UEBAXNNAEAN0@Z
	?eval_ISO_D@Biarc@G2lib@@UEBAXNNAEAN0@Z
	?eval_ISO_D@BiarcList@G2lib@@UEBAXNNAEAN0@Z
	?eval_ISO_D@ClothoidCurve@G2lib@@UEBAXNNAEAN0@Z
	?eval_ISO_D@ClothoidData@G2lib@@QEBAXNNAEAN0@Z
	?eval_ISO_D@ClothoidList@G2lib@@UEBAXNNAEAN0@Z
	?eval_ISO_D@G2solve3arc@G2lib@@QEBAXNNAEAN0@Z
	?eval_ISO_D@LineSegment@G2lib@@UEBAXNNAEAN0@Z
	?eval_ISO_D@PolyLine@G2lib@@UEBAXNNAEAN0@Z
	?eval_ISO_DD@BaseCurve@G2lib@@UEBAXNNAEAN0@Z
	?eval_ISO_DD@Biarc@G2lib@@UEBAXNNAEAN0@Z
	?eval_ISO_DD@BiarcList@G2lib@@UEBAXNNAEAN0@Z
	?eval_ISO_DD@ClothoidCurve@G2lib@@UEBAXNNAEAN0@Z
	?eval_ISO_DD@ClothoidData@G2lib@@QEBAXNNAEAN0@Z
	?eval_ISO_DD@ClothoidList@G2lib@@UEBAXNNAEAN0@Z
	?eval_ISO_DD@G2solve3arc@G2lib@@QEBAXNNAEAN0@Z
	?eval_ISO_DD@LineSegment@G2lib@@UEBAXNNAEAN0@Z
	?eval_ISO_DD@PolyLine@G2lib@@UEBAXNNAEAN0@Z
	?eval_ISO_DDD@BaseCurve@G2lib@@UEBAXNNAEAN0@Z
	?eval_ISO_DDD@Biarc@G2lib@@UEBAXNNAEAN0@Z
	?eval_ISO_DDD@BiarcList@G2lib@@UEBAXNNAEAN0@Z
	?eval_ISO_DDD@ClothoidCurve@G2lib@@UEBAXNNAEAN0@Z
	?eval_ISO_DDD@ClothoidData@G2lib@@QEBAXNNAEAN0@Z
	?eval_ISO_DDD@ClothoidList@G2lib@@UEBAXNNAEAN0@Z
	?eval_ISO_DDD@G2solve3arc@G2lib@@QEBAXNNAEAN0@Z
	?eval_ISO_DDD@LineSegment@G2lib@@UEBAXNNAEAN0@Z
	?eval_ISO_DDD@PolyLine@G2lib@@UEBAXNNAEAN0@Z
	?evaluate@BaseCurve@G2lib@@UEBAXNAEAN000@Z
	?evaluate@Biarc@G2lib@@UEBAXNAEAN000@Z
	?evaluate@BiarcList@G2lib@@UEBAXNAEAN000@Z
	?evaluate@CircleArc@G2lib@@UEBAXNAEAN000@Z
	?evaluate@ClothoidData@G2lib@@QEBAXNAEAN000@Z
	?evaluate@ClothoidList@G2lib@@UEBAXNAEAN000@Z
	?evaluate_ISO@BaseCurve@G2lib@@UEBAXNNAEAN000@Z
	?evaluate_ISO@BiarcList@G2lib@@UEBAXNNAEAN000@Z
	?evaluate_ISO@ClothoidList@G2lib@@UEBAXNNAEAN000@Z
	?evaluate_SAE@BaseCurve@G2lib@@UEBAXNNAEAN000@Z
	?export_ruby@ClothoidList@G2lib@@QEBAXAEAV?$basic_ostream@DU?$char_traits@D@std@@@std@@@Z
	?export_table@ClothoidList@G2lib@@QEBAXAEAV?$basic_ostream@DU?$char_traits@D@std@@@std@@@Z
	?factorize@Solve2x2@G2lib@@QEAA_NQEAY01N@Z
	?findAtS@BiarcList@G2lib@@QEBAHN@Z
	?findAtS@ClothoidList@G2lib@@QEBAHN@Z
	?findAtS@G2lib@@YAHNAEAHAEBV?$vector@NV?$allocator@N@std@@@std@@@Z
	?findAtS@PolyLine@G2lib@@QEBAHN@Z
	?findRoots@Cubic@PolynomialRoots@@AEAAXXZ
	?findRoots@Quadratic@PolynomialRoots@@AEAAXXZ
	?findRoots@Quartic@PolynomialRoots@@AEAAXXZ
	?findST1@BiarcList@G2lib@@QEBAHHHNNAEAN0@Z
	?findST1@BiarcList@G2lib@@QEBAHNNAEAN0@Z
	?findST1@ClothoidList@G2lib@@QEBAHHHNNAEAN0@Z
	?findST1@ClothoidList@G2lib@@QEBAHNNAEAN0@Z
	?front@?$vector@NV?$allocator@N@std@@@std@@QEAAAEANXZ
	?front@?$vector@NV?$allocator@N@std@@@std@@QEBAAEBNXZ
	?get@BiarcList@G2lib@@QEBAAEBVBiarc@2@H@Z
	?get@ClothoidList@G2lib@@QEBAAEBVClothoidCurve@2@H@Z
	?getAtS@BiarcList@G2lib@@QEBAAEBVBiarc@2@N@Z
	?getAtS@ClothoidList@G2lib@@QEBAAEBVClothoidCurve@2@N@Z
	?getDeltaKappa@ClothoidList@G2lib@@QEBAXQEAN@Z
	?getDeltaTheta@ClothoidList@G2lib@@QEBAXQEAN@Z
	?getNegativeRoots@Cubic@PolynomialRoots@@QEBAHQEAN@Z
	?getNegativeRoots@Quadratic@PolynomialRoots@@QEBAHQEAN@Z
	?getNegativeRoots@Quartic@PolynomialRoots@@QEBAHQEAN@Z
	?getPositiveRoots@Cubic@PolynomialRoots@@QEBAHQEAN@Z
	?getPositiveRoots@Quadratic@PolynomialRoots@@QEBAHQEAN@Z
	?getPositiveRoots@Quartic@PolynomialRoots@@QEBAHQEAN@Z
	?getRealRoots@Cubic@PolynomialRoots@@QEBAHQEAN@Z
	?getRealRoots@Quadratic@PolynomialRoots@@QEBAHQEAN@Z
	?getRealRoots@Quartic@PolynomialRoots@@QEBAHQEAN@Z
	?getSK@ClothoidList@G2lib@@QEBAXQEAN0@Z
	?getSTK@BiarcList@G2lib@@QEBAXQEAN00@Z
	?getSTK@ClothoidList@G2lib@@QEBAXQEAN00@Z
	?getSegment@PolyLine@G2lib@@QEBAAEBVLineSegment@2@H@Z
	?getXY@BiarcList@G2lib@@QEBAXQEAN0@Z
	?getXY@ClothoidList@G2lib@@QEBAXQEAN0@Z
	?gradient@ClothoidSplineG2@G2lib@@QEBA_NQEBNQEAN@Z
	?guess@ClothoidSplineG2@G2lib@@QEBAXQEAN00@Z
	?imbue@?$basic_filebuf@DU?$char_traits@D@std@@@std@@MEAAXAEBVlocale@2@@Z
	?info@Biarc@G2lib@@UEBAXAEAV?$basic_ostream@DU?$char_traits@D@std@@@std@@@Z
	?info@BiarcList@G2lib@@UEBAXAEAV?$basic_ostream@DU?$char_traits@D@std@@@std@@@Z
	?info@CircleArc@G2lib@@UEBAXAEAV?$basic_ostream@DU?$char_traits@D@std@@@std@@@Z
	?info@ClothoidCurve@G2lib@@UEBAXAEAV?$basic_ostream@DU?$char_traits@D@std@@@std@@@Z
	?info@ClothoidData@G2lib@@QEBAXAEAV?$basic_ostream@DU?$char_traits@D@std@@@std@@@Z
	?info@ClothoidList@G2lib@@UEBAXAEAV?$basic_ostream@DU?$char_traits@D@std@@@std@@@Z
	?info@Cubic@PolynomialRoots@@QEBAXAEAV?$basic_ostream@DU?$char_traits@D@std@@@std@@@Z
	?info@LineSegment@G2lib@@UEBAXAEAV?$basic_ostream@DU?$char_traits@D@std@@@std@@@Z
	?info@PolyLine@G2lib@@UEBAXAEAV?$basic_ostream@DU?$char_traits@D@std@@@std@@@Z
	?info@Quadratic@PolynomialRoots@@QEBAXAEAV?$basic_ostream@DU?$char_traits@D@std@@@std@@@Z
	?info@Quartic@PolynomialRoots@@QEBAXAEAV?$basic_ostream@DU?$char_traits@D@std@@@std@@@Z
	?init@BiarcList@G2lib@@QEAAXXZ
	?init@ClothoidList@G2lib@@QEAAXXZ
	?init@PolyLine@G2lib@@QEAAXNN@Z
	?initFile@AsyPlot@G2lib@@AEAAXXZ
	?integralCurvature2@ClothoidCurve@G2lib@@QEBANXZ
	?integralJerk2@ClothoidCurve@G2lib@@QEBANXZ
	?integralSnap2@ClothoidCurve@G2lib@@QEBANXZ
	?intersect@AABBtree@G2lib@@QEBAXAEBV12@AEAV?$vector@U?$pair@V?$shared_ptr@$$CBVBBox@G2lib@@@std@@V12@@std@@V?$allocator@U?$pair@V?$shared_ptr@$$CBVBBox@G2lib@@@std@@V12@@std@@@2@@std@@_N@Z
	?intersect@Biarc@G2lib@@QEBAXAEBV12@AEAV?$vector@U?$pair@NN@std@@V?$allocator@U?$pair@NN@std@@@2@@std@@_N@Z
	?intersect@CircleArc@G2lib@@QEBAXAEBV12@AEAV?$vector@U?$pair@NN@std@@V?$allocator@U?$pair@NN@std@@@2@@std@@_N@Z
	?intersect@G2lib@@YAXAEBVBaseCurve@1@0AEAV?$vector@U?$pair@NN@std@@V?$allocator@U?$pair@NN@std@@@2@@std@@_N@Z
	?intersect@LineSegment@G2lib@@QEBA_NAEBV12@AEAN1@Z
	?intersect@PolyLine@G2lib@@QEBAXAEBV12@AEAV?$vector@NV?$allocator@N@std@@@std@@1@Z
	?intersect@PolyLine@G2lib@@QEBAXAEBV12@AEAV?$vector@U?$pair@NN@std@@V?$allocator@U?$pair@NN@std@@@2@@std@@_N@Z
	?intersectCircleCircle@G2lib@@YAHNNNNNNNNQEAN0@Z
	?intersect_ISO@Biarc@G2lib@@QEBAXNAEBV12@NAEAV?$vector@U?$pair@NN@std@@V?$allocator@U?$pair@NN@std@@@2@@std@@_N@Z
	?intersect_ISO@BiarcList@G2lib@@QEBAXNAEBV12@NAEAV?$vector@U?$pair@NN@std@@V?$allocator@U?$pair@NN@std@@@2@@std@@_N@Z
	?intersect_ISO@CircleArc@G2lib@@QEBAXNAEBV12@NAEAV?$vector@U?$pair@NN@std@@V?$allocator@U?$pair@NN@std@@@2@@std@@_N@Z
	?intersect_ISO@ClothoidCurve@G2lib@@QEBAXNAEBV12@NAEAV?$vector@U?$pair@NN@std@@V?$allocator@U?$pair@NN@std@@@2@@std@@_N@Z
	?intersect_ISO@ClothoidList@G2lib@@QEBAXNAEBV12@NAEAV?$vector@U?$pair@NN@std@@V?$allocator@U?$pair@NN@std@@@2@@std@@_N@Z
	?intersect_ISO@G2lib@@YAXAEBVBaseCurve@1@N0NAEAV?$vector@U?$pair@NN@std@@V?$allocator@U?$pair@NN@std@@@2@@std@@_N@Z
	?intersect_ISO@LineSegment@G2lib@@QEBA_NNAEBV12@NAEAN1@Z
	?isCounterClockwise@G2lib@@YAHQEBN00@Z
	?isPointInTriangle@G2lib@@YAHQEBN000@Z
	?jacobian@ClothoidSplineG2@G2lib@@QEBA_NQEBNQEAN@Z
	?jacobian_nnz@ClothoidSplineG2@G2lib@@QEBAHXZ
	?jacobian_pattern@ClothoidSplineG2@G2lib@@QEBA_NQEAH0@Z
	?jacobian_pattern_matlab@ClothoidSplineG2@G2lib@@QEBA_NQEAN0@Z
	?join@BBox@G2lib@@QEAAXAEBV?$vector@V?$shared_ptr@$$CBVBBox@G2lib@@@std@@V?$allocator@V?$shared_ptr@$$CBVBBox@G2lib@@@std@@@2@@std@@@Z
	?kappaBegin@BaseCurve@G2lib@@UEBANXZ
	?kappaEnd@BaseCurve@G2lib@@UEBANXZ
	?label@AsyPlot@G2lib@@QEBAXAEBV?$basic_string@DU?$char_traits@D@std@@V?$allocator@D@2@@std@@NN00@Z
	?lenTolerance@CircleArc@G2lib@@QEBANN@Z
	?length@Biarc@G2lib@@UEBANXZ
	?length@BiarcList@G2lib@@UEBANXZ
	?length@CircleArc@G2lib@@UEBANXZ
	?length@ClothoidCurve@G2lib@@UEBANXZ
	?length@ClothoidList@G2lib@@UEBANXZ
	?length@LineSegment@G2lib@@UEBANXZ
	?length@PolyLine@G2lib@@UEBANXZ
	?length_ISO@Biarc@G2lib@@UEBANN@Z
	?length_ISO@BiarcList@G2lib@@UEBANN@Z
	?length_ISO@CircleArc@G2lib@@UEBANN@Z
	?length_ISO@ClothoidCurve@G2lib@@UEBANN@Z
	?length_ISO@ClothoidList@G2lib@@UEBANN@Z
	?length_ISO@LineSegment@G2lib@@UEBANN@Z
	?length_ISO@PolyLine@G2lib@@UEBANN@Z
	?maxDistance@BBox@G2lib@@QEBANNN@Z
	?min_distance@AABBtree@G2lib@@QEBAXNNAEAV?$vector@V?$shared_ptr@$$CBVBBox@G2lib@@@std@@V?$allocator@V?$shared_ptr@$$CBVBBox@G2lib@@@std@@@2@@std@@@Z
	?min_maxdist@AABBtree@G2lib@@CANNNAEBV12@N@Z
	?min_maxdist_select@AABBtree@G2lib@@CAXNNNAEBV12@AEAV?$vector@V?$shared_ptr@$$CBVBBox@G2lib@@@std@@V?$allocator@V?$shared_ptr@$$CBVBBox@G2lib@@@std@@@2@@std@@@Z
	?nor_ISO@ClothoidData@G2lib@@QEBAXNAEAN0@Z
	?nor_ISO_D@ClothoidData@G2lib@@QEBAXNAEAN0@Z
	?nor_ISO_DD@ClothoidData@G2lib@@QEBAXNAEAN0@Z
	?nor_ISO_DDD@ClothoidData@G2lib@@QEBAXNAEAN0@Z
	?nor_SAE@ClothoidData@G2lib@@QEBAXNAEAN0@Z
	?nor_SAE_D@ClothoidData@G2lib@@QEBAXNAEAN0@Z
	?nor_SAE_DD@ClothoidData@G2lib@@QEBAXNAEAN0@Z
	?nor_SAE_DDD@ClothoidData@G2lib@@QEBAXNAEAN0@Z
	?numConstraints@ClothoidSplineG2@G2lib@@QEBAHXZ
	?numTheta@ClothoidSplineG2@G2lib@@QEBAHXZ
	?nx_Begin_ISO@BaseCurve@G2lib@@UEBANXZ
	?nx_Begin_ISO@Biarc@G2lib@@UEBANXZ
	?nx_Begin_ISO@BiarcList@G2lib@@UEBANXZ
	?nx_Begin_ISO@CircleArc@G2lib@@UEBANXZ
	?nx_Begin_ISO@ClothoidCurve@G2lib@@UEBANXZ
	?nx_Begin_ISO@ClothoidList@G2lib@@UEBANXZ
	?nx_Begin_ISO@LineSegment@G2lib@@UEBANXZ
	?nx_End_ISO@BaseCurve@G2lib@@UEBANXZ
	?nx_End_ISO@Biarc@G2lib@@UEBANXZ
	?nx_End_ISO@BiarcList@G2lib@@UEBANXZ
	?nx_End_ISO@ClothoidList@G2lib@@UEBANXZ
	?nx_End_ISO@LineSegment@G2lib@@UEBANXZ
	?ny_Begin_ISO@BaseCurve@G2lib@@UEBANXZ
	?ny_Begin_ISO@Biarc@G2lib@@UEBANXZ
	?ny_Begin_ISO@BiarcList@G2lib@@UEBANXZ
	?ny_Begin_ISO@CircleArc@G2lib@@UEBANXZ
	?ny_Begin_ISO@ClothoidCurve@G2lib@@UEBANXZ
	?ny_Begin_ISO@ClothoidList@G2lib@@UEBANXZ
	?ny_Begin_ISO@LineSegment@G2lib@@UEBANXZ
	?ny_End_ISO@BaseCurve@G2lib@@UEBANXZ
	?ny_End_ISO@Biarc@G2lib@@UEBANXZ
	?ny_End_ISO@BiarcList@G2lib@@UEBANXZ
	?ny_End_ISO@ClothoidList@G2lib@@UEBANXZ
	?ny_End_ISO@LineSegment@G2lib@@UEBANXZ
	?objective@ClothoidSplineG2@G2lib@@QEBA_NQEBNAEAN@Z
	?openFile@AsyPlot@G2lib@@AEAA_NXZ
	?optimized_sample_ISO@ClothoidCurve@G2lib@@QEBAXNHNAEAV?$vector@NV?$allocator@N@std@@@std@@@Z
	?optimized_sample_internal_ISO@ClothoidCurve@G2lib@@AEBAXNNNNNAEAV?$vector@NV?$allocator@N@std@@@std@@@Z
	?origin_at@ClothoidData@G2lib@@QEAAXN@Z
	?overflow@?$basic_filebuf@DU?$char_traits@D@std@@@std@@MEAAHH@Z
	?overflow@?$basic_stringbuf@DU?$char_traits@D@std@@V?$allocator@D@2@@std@@MEAAHH@Z
	?overlap@Triangle2D@G2lib@@QEBA_NAEBV12@@Z
	?paramNURBS@CircleArc@G2lib@@QEBAXAEAH0@Z
	?paramNURBS@LineSegment@G2lib@@QEBAXAEAH0@Z
	?pbackfail@?$basic_filebuf@DU?$char_traits@D@std@@@std@@MEAAHH@Z
	?pbackfail@?$basic_stringbuf@DU?$char_traits@D@std@@V?$allocator@D@2@@std@@MEAAHH@Z
	?polygon@PolyLine@G2lib@@QEBAXQEAN0@Z
	?print@AABBtree@G2lib@@QEBAXAEAV?$basic_ostream@DU?$char_traits@D@std@@@std@@H@Z
	?projectPointOnCircle@G2lib@@YANNNNNNN@Z
	?projectPointOnCircleArc@G2lib@@YANNNNNNNNN@Z
	?push_back@?$vector@U?$pair@V?$shared_ptr@$$CBVBBox@G2lib@@@std@@V12@@std@@V?$allocator@U?$pair@V?$shared_ptr@$$CBVBBox@G2lib@@@std@@V12@@std@@@2@@std@@QEAAX$$QEAU?$pair@V?$shared_ptr@$$CBVBBox@G2lib@@@std@@V12@@2@@Z
	?push_back@BiarcList@G2lib@@QEAAXAEBVBiarc@2@@Z
	?push_back@BiarcList@G2lib@@QEAAXAEBVCircleArc@2@@Z
	?push_back@BiarcList@G2lib@@QEAAXAEBVLineSegment@2@@Z
	?push_back@BiarcList@G2lib@@QEAAXAEBVPolyLine@2@@Z
	?push_back@ClothoidList@G2lib@@QEAAXAEBVBiarc@2@@Z
	?push_back@ClothoidList@G2lib@@QEAAXAEBVBiarcList@2@@Z
	?push_back@ClothoidList@G2lib@@QEAAXAEBVCircleArc@2@@Z
	?push_back@ClothoidList@G2lib@@QEAAXAEBVClothoidCurve@2@@Z
	?push_back@ClothoidList@G2lib@@QEAAXAEBVLineSegment@2@@Z
	?push_back@ClothoidList@G2lib@@QEAAXAEBVPolyLine@2@@Z
	?push_back@ClothoidList@G2lib@@QEAAXNNN@Z
	?push_back@ClothoidList@G2lib@@QEAAXNNNNNN@Z
	?push_back@PolyLine@G2lib@@QEAAXAEBVBiarc@2@N@Z
	?push_back@PolyLine@G2lib@@QEAAXAEBVCircleArc@2@N@Z
	?push_back@PolyLine@G2lib@@QEAAXAEBVClothoidCurve@2@N@Z
	?push_back@PolyLine@G2lib@@QEAAXAEBVClothoidList@2@N@Z
	?push_back@PolyLine@G2lib@@QEAAXAEBVLineSegment@2@@Z
	?push_back@PolyLine@G2lib@@QEAAXNN@Z
	?push_back_G1@BiarcList@G2lib@@QEAAXNNN@Z
	?push_back_G1@BiarcList@G2lib@@QEAAXNNNNNN@Z
	?push_back_G1@ClothoidList@G2lib@@QEAAXNNN@Z
	?push_back_G1@ClothoidList@G2lib@@QEAAXNNNNNN@Z
	?rangeSymm@G2lib@@YAXAEAN@Z
	?reserve@BiarcList@G2lib@@QEAAXH@Z
	?reserve@ClothoidList@G2lib@@QEAAXH@Z
	?resetLastInterval@BiarcList@G2lib@@AEAAXXZ
	?resetLastInterval@ClothoidList@G2lib@@AEAAXXZ
	?resetLastInterval@PolyLine@G2lib@@AEAAXXZ
	?resize@?$vector@NV?$allocator@N@std@@@std@@QEAAX_K@Z
	?reverse@Biarc@G2lib@@UEAAXXZ
	?reverse@BiarcList@G2lib@@UEAAXXZ
	?reverse@CircleArc@G2lib@@UEAAXXZ
	?reverse@ClothoidCurve@G2lib@@UEAAXXZ
	?reverse@ClothoidData@G2lib@@QEAAXN@Z
	?reverse@ClothoidData@G2lib@@QEBAXNAEAV12@@Z
	?reverse@ClothoidList@G2lib@@UEAAXXZ
	?reverse@LineSegment@G2lib@@UEAAXXZ
	?reverse@PolyLine@G2lib@@UEAAXXZ
	?roots@PolynomialRoots@@YAHQEBNHQEAN1@Z
	?rotate@Biarc@G2lib@@UEAAXNNN@Z
	?rotate@BiarcList@G2lib@@UEAAXNNN@Z
	?rotate@CircleArc@G2lib@@UEAAXNNN@Z
	?rotate@ClothoidCurve@G2lib@@UEAAXNNN@Z
	?rotate@ClothoidData@G2lib@@QEAAXNNN@Z
	?rotate@ClothoidList@G2lib@@UEAAXNNN@Z
	?rotate@LineSegment@G2lib@@UEAAXNNN@Z
	?rotate@PolyLine@G2lib@@UEAAXNNN@Z
	?rotate@Triangle2D@G2lib@@QEAAXNNN@Z
	?scale@Biarc@G2lib@@UEAAXN@Z
	?scale@BiarcList@G2lib@@UEAAXN@Z
	?scale@CircleArc@G2lib@@UEAAXN@Z
	?scale@ClothoidCurve@G2lib@@UEAAXN@Z
	?scale@ClothoidList@G2lib@@UEAAXN@Z
	?scale@LineSegment@G2lib@@UEAAXN@Z
	?scale@PolyLine@G2lib@@UEAAXN@Z
	?seekoff@?$basic_filebuf@DU?$char_traits@D@std@@@std@@MEAA?AV?$fpos@U_Mbstatet@@@2@_JHH@Z
	?seekoff@?$basic_stringbuf@DU?$char_traits@D@std@@V?$allocator@D@2@@std@@MEAA?AV?$fpos@U_Mbstatet@@@2@_JHH@Z
	?seekpos@?$basic_filebuf@DU?$char_traits@D@std@@@std@@MEAA?AV?$fpos@U_Mbstatet@@@2@V32@H@Z
	?seekpos@?$basic_stringbuf@DU?$char_traits@D@std@@V?$allocator@D@2@@std@@MEAA?AV?$fpos@U_Mbstatet@@@2@V32@H@Z
	?segment_length@BiarcList@G2lib@@QEBANH@Z
	?segment_length@ClothoidList@G2lib@@QEBANH@Z
	?segment_length_ISO@BiarcList@G2lib@@QEBANHN@Z
	?segment_length_ISO@ClothoidList@G2lib@@QEBANHN@Z
	?setMaxIter@G2solve2arc@G2lib@@QEAAXH@Z
	?setMaxIter@G2solve3arc@G2lib@@QEAAXH@Z
	?setMaxIter@G2solveCLC@G2lib@@QEAAXH@Z
	?setTolerance@G2solve2arc@G2lib@@QEAAXN@Z
	?setTolerance@G2solve3arc@G2lib@@QEAAXN@Z
	?setTolerance@G2solveCLC@G2lib@@QEAAXN@Z
	?setbuf@?$basic_filebuf@DU?$char_traits@D@std@@@std@@MEAAPEAV?$basic_streambuf@DU?$char_traits@D@std@@@2@PEAD_J@Z
	?size@?$vector@VBiarc@G2lib@@V?$allocator@VBiarc@G2lib@@@std@@@std@@QEBA_KXZ
	?size@?$vector@VClothoidCurve@G2lib@@V?$allocator@VClothoidCurve@G2lib@@@std@@@std@@QEBA_KXZ
	?size@?$vector@VLineSegment@G2lib@@V?$allocator@VLineSegment@G2lib@@@std@@@std@@QEBA_KXZ
	?solve@G2solve2arc@G2lib@@QEAAHXZ
	?solve@G2solve3arc@G2lib@@AEAAHNN@Z
	?solve@G2solveCLC@G2lib@@QEAAHXZ
	?solve@Solve2x2@G2lib@@QEBA_NQEBNQEAN@Z
	?solveLinearQuadratic2@G2lib@@YAHNNNQEAN0@Z
	?solveLinearQuadratic@G2lib@@YAHNNNNNNQEAN0@Z
	?split_at_flex@ClothoidData@G2lib@@QEBANAEAV12@0@Z
	?str@?$basic_ostringstream@DU?$char_traits@D@std@@V?$allocator@D@2@@std@@QEBA?AV?$basic_string@DU?$char_traits@D@std@@V?$allocator@D@2@@2@XZ
	?sync@?$basic_filebuf@DU?$char_traits@D@std@@@std@@MEAAHXZ
	?tg@BaseCurve@G2lib@@UEBAXNAEAN0@Z
	?tg@Biarc@G2lib@@UEBAXNAEAN0@Z
	?tg@BiarcList@G2lib@@UEBAXNAEAN0@Z
	?tg@CircleArc@G2lib@@UEBAXNAEAN0@Z
	?tg@ClothoidCurve@G2lib@@UEBAXNAEAN0@Z
	?tg@ClothoidData@G2lib@@QEBAXNAEAN0@Z
	?tg@ClothoidList@G2lib@@UEBAXNAEAN0@Z
	?tg@LineSegment@G2lib@@UEBAXNAEAN0@Z
	?tg_D@BaseCurve@G2lib@@UEBAXNAEAN0@Z
	?tg_D@Biarc@G2lib@@UEBAXNAEAN0@Z
	?tg_D@BiarcList@G2lib@@UEBAXNAEAN0@Z
	?tg_D@CircleArc@G2lib@@UEBAXNAEAN0@Z
	?tg_D@ClothoidCurve@G2lib@@UEBAXNAEAN0@Z
	?tg_D@ClothoidData@G2lib@@QEBAXNAEAN0@Z
	?tg_D@ClothoidList@G2lib@@UEBAXNAEAN0@Z
	?tg_D@LineSegment@G2lib@@UEBAXNAEAN0@Z
	?tg_DD@BaseCurve@G2lib@@UEBAXNAEAN0@Z
	?tg_DD@Biarc@G2lib@@UEBAXNAEAN0@Z
	?tg_DD@BiarcList@G2lib@@UEBAXNAEAN0@Z
	?tg_DD@CircleArc@G2lib@@UEBAXNAEAN0@Z
	?tg_DD@ClothoidCurve@G2lib@@UEBAXNAEAN0@Z
	?tg_DD@ClothoidData@G2lib@@QEBAXNAEAN0@Z
	?tg_DD@ClothoidList@G2lib@@UEBAXNAEAN0@Z
	?tg_DD@LineSegment@G2lib@@UEBAXNAEAN0@Z
	?tg_DDD@BaseCurve@G2lib@@UEBAXNAEAN0@Z
	?tg_DDD@Biarc@G2lib@@UEBAXNAEAN0@Z
	?tg_DDD@BiarcList@G2lib@@UEBAXNAEAN0@Z
	?tg_DDD@CircleArc@G2lib@@UEBAXNAEAN0@Z
	?tg_DDD@ClothoidCurve@G2lib@@UEBAXNAEAN0@Z
	?tg_DDD@ClothoidData@G2lib@@QEBAXNAEAN0@Z
	?tg_DDD@ClothoidList@G2lib@@UEBAXNAEAN0@Z
	?tg_DDD@LineSegment@G2lib@@UEBAXNAEAN0@Z
	?tg_x_D@ClothoidData@G2lib@@QEBANN@Z
	?tg_x_DD@ClothoidData@G2lib@@QEBANN@Z
	?tg_x_DDD@ClothoidData@G2lib@@QEBANN@Z
	?tg_y_D@ClothoidData@G2lib@@QEBANN@Z
	?tg_y_DD@ClothoidData@G2lib@@QEBANN@Z
	?tg_y_DDD@ClothoidData@G2lib@@QEBANN@Z
	?theta@Biarc@G2lib@@UEBANN@Z
	?theta@BiarcList@G2lib@@UEBANN@Z
	?theta@CircleArc@G2lib@@UEBANN@Z
	?theta@ClothoidCurve@G2lib@@UEBANN@Z
	?theta@ClothoidList@G2lib@@UEBANN@Z
	?theta@G2solve3arc@G2lib@@QEBANN@Z
	?theta@LineSegment@G2lib@@UEBANN@Z
	?theta@PolyLine@G2lib@@UEBANN@Z
	?thetaBegin@BaseCurve@G2lib@@UEBANXZ
	?thetaBegin@Biarc@G2lib@@UEBANXZ
	?thetaBegin@BiarcList@G2lib@@UEBANXZ
	?thetaBegin@CircleArc@G2lib@@UEBANXZ
	?thetaBegin@ClothoidCurve@G2lib@@UEBANXZ
	?thetaBegin@ClothoidList@G2lib@@UEBANXZ
	?thetaEnd@BaseCurve@G2lib@@UEBANXZ
	?thetaEnd@Biarc@G2lib@@UEBANXZ
	?thetaEnd@BiarcList@G2lib@@UEBANXZ
	?thetaEnd@ClothoidCurve@G2lib@@UEBANXZ
	?thetaEnd@ClothoidList@G2lib@@UEBANXZ
	?thetaMinMax@CircleArc@G2lib@@QEBANAEAN0@Z
	?thetaMinMax@ClothoidCurve@G2lib@@QEBANAEAN0@Z
	?thetaMinMax@G2solve3arc@G2lib@@QEBANAEAN0@Z
	?thetaTotalVariation@ClothoidCurve@G2lib@@QEBANXZ
	?theta_D@Biarc@G2lib@@UEBANN@Z
	?theta_D@BiarcList@G2lib@@UEBANN@Z
	?theta_D@CircleArc@G2lib@@UEBANN@Z
	?theta_D@ClothoidCurve@G2lib@@UEBANN@Z
	?theta_D@ClothoidList@G2lib@@UEBANN@Z
	?theta_D@G2solve3arc@G2lib@@QEBANN@Z
	?theta_D@LineSegment@G2lib@@UEBANN@Z
	?theta_D@PolyLine@G2lib@@UEBANN@Z
	?theta_DD@Biarc@G2lib@@UEBANN@Z
	?theta_DD@BiarcList@G2lib@@UEBANN@Z
	?theta_DD@CircleArc@G2lib@@UEBANN@Z
	?theta_DD@ClothoidCurve@G2lib@@UEBANN@Z
	?theta_DD@ClothoidList@G2lib@@UEBANN@Z
	?theta_DD@G2solve3arc@G2lib@@QEBANN@Z
	?theta_DD@LineSegment@G2lib@@UEBANN@Z
	?theta_DD@PolyLine@G2lib@@UEBANN@Z
	?theta_DDD@Biarc@G2lib@@UEBANN@Z
	?theta_DDD@BiarcList@G2lib@@UEBANN@Z
	?theta_DDD@CircleArc@G2lib@@UEBANN@Z
	?theta_DDD@ClothoidCurve@G2lib@@UEBANN@Z
	?theta_DDD@ClothoidList@G2lib@@UEBANN@Z
	?theta_DDD@G2solve3arc@G2lib@@QEBANN@Z
	?theta_DDD@LineSegment@G2lib@@UEBANN@Z
	?theta_DDD@PolyLine@G2lib@@UEBANN@Z
	?toBS@LineSegment@G2lib@@UEBAXQEANQEAY01N@Z
	?toNURBS@CircleArc@G2lib@@QEBAXQEANQEAY02N@Z
	?toNURBS@LineSegment@G2lib@@QEBAXQEANQEAY02N@Z
	?translate@Biarc@G2lib@@UEAAXNN@Z
	?translate@BiarcList@G2lib@@UEAAXNN@Z
	?translate@CircleArc@G2lib@@UEAAXNN@Z
	?translate@ClothoidCurve@G2lib@@UEAAXNN@Z
	?translate@ClothoidList@G2lib@@UEAAXNN@Z
	?translate@LineSegment@G2lib@@UEAAXNN@Z
	?translate@PolyLine@G2lib@@UEAAXNN@Z
	?triangle@AsyPlot@G2lib@@QEBAXAEBVTriangle2D@2@AEBV?$basic_string@DU?$char_traits@D@std@@V?$allocator@D@2@@std@@@Z
	?trim@Biarc@G2lib@@UEAAXNN@Z
	?trim@BiarcList@G2lib@@UEAAXNN@Z
	?trim@CircleArc@G2lib@@UEAAXNN@Z
	?trim@ClothoidCurve@G2lib@@UEAAXNN@Z
	?trim@ClothoidList@G2lib@@UEAAXNN@Z
	?trim@LineSegment@G2lib@@UEAAXNN@Z
	?trim@PolyLine@G2lib@@UEAAXNN@Z
	?tx@BaseCurve@G2lib@@UEBANN@Z
	?tx@Biarc@G2lib@@UEBANN@Z
	?tx@BiarcList@G2lib@@UEBANN@Z
	?tx@CircleArc@G2lib@@UEBANN@Z
	?tx@ClothoidCurve@G2lib@@UEBANN@Z
	?tx@ClothoidList@G2lib@@UEBANN@Z
	?tx@LineSegment@G2lib@@UEBANN@Z
	?tx_Begin@BaseCurve@G2lib@@UEBANXZ
	?tx_Begin@Biarc@G2lib@@UEBANXZ
	?tx_Begin@BiarcList@G2lib@@UEBANXZ
	?tx_Begin@CircleArc@G2lib@@UEBANXZ
	?tx_Begin@ClothoidCurve@G2lib@@UEBANXZ
	?tx_Begin@ClothoidList@G2lib@@UEBANXZ
	?tx_Begin@LineSegment@G2lib@@UEBANXZ
	?tx_D@BaseCurve@G2lib@@UEBANN@Z
	?tx_D@Biarc@G2lib@@UEBANN@Z
	?tx_D@BiarcList@G2lib@@UEBANN@Z
	?tx_D@CircleArc@G2lib@@UEBANN@Z
	?tx_D@ClothoidCurve@G2lib@@UEBANN@Z
	?tx_D@ClothoidList@G2lib@@UEBANN@Z
	?tx_D@LineSegment@G2lib@@UEBANN@Z
	?tx_DD@BaseCurve@G2lib@@UEBANN@Z
	?tx_DD@Biarc@G2lib@@UEBANN@Z
	?tx_DD@BiarcList@G2lib@@UEBANN@Z
	?tx_DD@CircleArc@G2lib@@UEBANN@Z
	?tx_DD@ClothoidCurve@G2lib@@UEBANN@Z
	?tx_DD@ClothoidList@G2lib@@UEBANN@Z
	?tx_DD@LineSegment@G2lib@@UEBANN@Z
	?tx_DDD@BaseCurve@G2lib@@UEBANN@Z
	?tx_DDD@Biarc@G2lib@@UEBANN@Z
	?tx_DDD@BiarcList@G2lib@@UEBANN@Z
	?tx_DDD@CircleArc@G2lib@@UEBANN@Z
	?tx_DDD@ClothoidCurve@G2lib@@UEBANN@Z
	?tx_DDD@ClothoidList@G2lib@@UEBANN@Z
	?tx_DDD@LineSegment@G2lib@@UEBANN@Z
	?tx_End@BaseCurve@G2lib@@UEBANXZ
	?tx_End@Biarc@G2lib@@UEBANXZ
	?tx_End@BiarcList@G2lib@@UEBANXZ
	?tx_End@ClothoidList@G2lib@@UEBANXZ
	?tx_End@LineSegment@G2lib@@UEBANXZ
	?ty@BaseCurve@G2lib@@UEBANN@Z
	?ty@Biarc@G2lib@@UEBANN@Z
	?ty@BiarcList@G2lib@@UEBANN@Z
	?ty@CircleArc@G2lib@@UEBANN@Z
	?ty@ClothoidCurve@G2lib@@UEBANN@Z
	?ty@ClothoidList@G2lib@@UEBANN@Z
	?ty@LineSegment@G2lib@@UEBANN@Z
	?ty_Begin@BaseCurve@G2lib@@UEBANXZ
	?ty_Begin@Biarc@G2lib@@UEBANXZ
	?ty_Begin@BiarcList@G2lib@@UEBANXZ
	?ty_Begin@CircleArc@G2lib@@UEBANXZ
	?ty_Begin@ClothoidCurve@G2lib@@UEBANXZ
	?ty_Begin@ClothoidList@G2lib@@UEBANXZ
	?ty_Begin@LineSegment@G2lib@@UEBANXZ
	?ty_D@BaseCurve@G2lib@@UEBANN@Z
	?ty_D@Biarc@G2lib@@UEBANN@Z
	?ty_D@BiarcList@G2lib@@UEBANN@Z
	?ty_D@CircleArc@G2lib@@UEBANN@Z
	?ty_D@ClothoidCurve@G2lib@@UEBANN@Z
	?ty_D@ClothoidList@G2lib@@UEBANN@Z
	?ty_D@LineSegment@G2lib@@UEBANN@Z
	?ty_DD@BaseCurve@G2lib@@UEBANN@Z
	?ty_DD@Biarc@G2lib@@UEBANN@Z
	?ty_DD@BiarcList@G2lib@@UEBANN@Z
	?ty_DD@CircleArc@G2lib@@UEBANN@Z
	?ty_DD@ClothoidCurve@G2lib@@UEBANN@Z
	?ty_DD@ClothoidList@G2lib@@UEBANN@Z
	?ty_DD@LineSegment@G2lib@@UEBANN@Z
	?ty_DDD@BaseCurve@G2lib@@UEBANN@Z
	?ty_DDD@Biarc@G2lib@@UEBANN@Z
	?ty_DDD@BiarcList@G2lib@@UEBANN@Z
	?ty_DDD@CircleArc@G2lib@@UEBANN@Z
	?ty_DDD@ClothoidCurve@G2lib@@UEBANN@Z
	?ty_DDD@ClothoidList@G2lib@@UEBANN@Z
	?ty_DDD@LineSegment@G2lib@@UEBANN@Z
	?ty_End@BaseCurve@G2lib@@UEBANXZ
	?ty_End@Biarc@G2lib@@UEBANXZ
	?ty_End@BiarcList@G2lib@@UEBANXZ
	?ty_End@ClothoidList@G2lib@@UEBANXZ
	?ty_End@LineSegment@G2lib@@UEBANXZ
	?type@BaseCurve@G2lib@@QEBA?AW4CurveType@2@XZ
	?uflow@?$basic_filebuf@DU?$char_traits@D@std@@@std@@MEAAHXZ
	?underflow@?$basic_filebuf@DU?$char_traits@D@std@@@std@@MEAAHXZ
	?underflow@?$basic_stringbuf@DU?$char_traits@D@std@@V?$allocator@D@2@@std@@MEAAHXZ
	?updateInterval@G2lib@@YAXAEAHNQEBNH@Z
	?what@exception@std@@UEBAPEBDXZ
	?wrap_in_range@ClothoidList@G2lib@@QEBAXAEAN@Z
	?xBegin@BaseCurve@G2lib@@UEBANXZ
	?xBegin@Biarc@G2lib@@UEBANXZ
	?xBegin@BiarcList@G2lib@@UEBANXZ
	?xBegin@CircleArc@G2lib@@UEBANXZ
	?xBegin@ClothoidCurve@G2lib@@UEBANXZ
	?xBegin@ClothoidList@G2lib@@UEBANXZ
	?xBegin@LineSegment@G2lib@@UEBANXZ
	?xBegin@PolyLine@G2lib@@UEBANXZ
	?xBegin_ISO@BaseCurve@G2lib@@UEBANN@Z
	?xBegin_ISO@BiarcList@G2lib@@UEBANN@Z
	?xBegin_ISO@ClothoidList@G2lib@@UEBANN@Z
	?xBegin_ISO@LineSegment@G2lib@@UEBANN@Z
	?xEnd@BaseCurve@G2lib@@UEBANXZ
	?xEnd@Biarc@G2lib@@UEBANXZ
	?xEnd@BiarcList@G2lib@@UEBANXZ
	?xEnd@ClothoidCurve@G2lib@@UEBANXZ
	?xEnd@ClothoidList@G2lib@@UEBANXZ
	?xEnd@LineSegment@G2lib@@UEBANXZ
	?xEnd@PolyLine@G2lib@@UEBANXZ
	?xEnd_ISO@BaseCurve@G2lib@@UEBANN@Z
	?xEnd_ISO@BiarcList@G2lib@@UEBANN@Z
	?xEnd_ISO@ClothoidList@G2lib@@UEBANN@Z
	?xEnd_ISO@LineSegment@G2lib@@UEBANN@Z
	?xsgetn@?$basic_filebuf@DU?$char_traits@D@std@@@std@@MEAA_JPEAD_J@Z
	?xsputn@?$basic_filebuf@DU?$char_traits@D@std@@@std@@MEAA_JPEBD_J@Z
	?xy_to_guess_angle@G2lib@@YAXHQEBN0QEAN1111@Z
	?yBegin@BaseCurve@G2lib@@UEBANXZ
	?yBegin@Biarc@G2lib@@UEBANXZ
	?yBegin@BiarcList@G2lib@@UEBANXZ
	?yBegin@CircleArc@G2lib@@UEBANXZ
	?yBegin@ClothoidCurve@G2lib@@UEBANXZ
	?yBegin@ClothoidList@G2lib@@UEBANXZ
	?yBegin@LineSegment@G2lib@@UEBANXZ
	?yBegin@PolyLine@G2lib@@UEBANXZ
	?yBegin_ISO@BaseCurve@G2lib@@UEBANN@Z
	?yBegin_ISO@BiarcList@G2lib@@UEBANN@Z
	?yBegin_ISO@ClothoidList@G2lib@@UEBANN@Z
	?yBegin_ISO@LineSegment@G2lib@@UEBANN@Z
	?yEnd@BaseCurve@G2lib@@UEBANXZ
	?yEnd@Biarc@G2lib@@UEBANXZ
	?yEnd@BiarcList@G2lib@@UEBANXZ
	?yEnd@ClothoidCurve@G2lib@@UEBANXZ
	?yEnd@ClothoidList@G2lib@@UEBANXZ
	?yEnd@LineSegment@G2lib@@UEBANXZ
	?yEnd@PolyLine@G2lib@@UEBANXZ
	?yEnd_ISO@BaseCurve@G2lib@@UEBANN@Z
	?yEnd_ISO@BiarcList@G2lib@@UEBANN@Z
	?yEnd_ISO@ClothoidList@G2lib@@UEBANN@Z
	?yEnd_ISO@LineSegment@G2lib@@UEBANN@Z
